
obj/bios.elf:     file format elf32-littlearm


Disassembly of section .text:

70010000 <_reset_vector>:
70010000:	ea00000f 	b	70010044 <_start>

70010004 <_table_isr>:
70010004:	e59ff018 	ldr	pc, [pc, #24]	@ 70010024 <literal_reset_vector>
70010008:	e59ff018 	ldr	pc, [pc, #24]	@ 70010028 <literal_undef_handler>
7001000c:	e59ff018 	ldr	pc, [pc, #24]	@ 7001002c <literal_swi_handler>
70010010:	e59ff018 	ldr	pc, [pc, #24]	@ 70010030 <literal_prefetch_abort>
70010014:	e59ff018 	ldr	pc, [pc, #24]	@ 70010034 <literal_data_abort>
70010018:	e59ff018 	ldr	pc, [pc, #24]	@ 70010038 <literal_reserved_handler>
7001001c:	e59ff018 	ldr	pc, [pc, #24]	@ 7001003c <literal_irq_handler>
70010020:	e59ff018 	ldr	pc, [pc, #24]	@ 70010040 <literal_fiq_handler>

70010024 <literal_reset_vector>:
70010024:	70010000 	andvc	r0, r1, r0

70010028 <literal_undef_handler>:
70010028:	700100b4 	strhvc	r0, [r1], -r4

7001002c <literal_swi_handler>:
7001002c:	700100b8 	strhvc	r0, [r1], -r8

70010030 <literal_prefetch_abort>:
70010030:	700100cc 	andvc	r0, r1, ip, asr #1

70010034 <literal_data_abort>:
70010034:	700100d0 	ldrdvc	r0, [r1], -r0	@ <UNPREDICTABLE>

70010038 <literal_reserved_handler>:
70010038:	700100d4 	ldrdvc	r0, [r1], -r4

7001003c <literal_irq_handler>:
7001003c:	700100d8 	ldrdvc	r0, [r1], -r8

70010040 <literal_fiq_handler>:
70010040:	70010104 	andvc	r0, r1, r4, lsl #2

70010044 <_start>:
70010044:	e3a00000 	mov	r0, #0
70010048:	e59f1048 	ldr	r1, [pc, #72]	@ 70010098 <_idle+0x8>
7001004c:	e59f2048 	ldr	r2, [pc, #72]	@ 7001009c <_idle+0xc>

70010050 <_copy_loop>:
70010050:	e4913004 	ldr	r3, [r1], #4
70010054:	e4803004 	str	r3, [r0], #4
70010058:	e1510002 	cmp	r1, r2
7001005c:	1afffffb 	bne	70010050 <_copy_loop>

70010060 <_stack_init>:
70010060:	e321f0d2 	msr	CPSR_c, #210	@ 0xd2
70010064:	e59fd034 	ldr	sp, [pc, #52]	@ 700100a0 <_idle+0x10>
70010068:	e321f0d3 	msr	CPSR_c, #211	@ 0xd3
7001006c:	e59fd030 	ldr	sp, [pc, #48]	@ 700100a4 <_idle+0x14>
70010070:	e321f0d7 	msr	CPSR_c, #215	@ 0xd7
70010074:	e59fd02c 	ldr	sp, [pc, #44]	@ 700100a8 <_idle+0x18>
70010078:	e321f0db 	msr	CPSR_c, #219	@ 0xdb
7001007c:	e59fd028 	ldr	sp, [pc, #40]	@ 700100ac <_idle+0x1c>
70010080:	e321f0df 	msr	CPSR_c, #223	@ 0xdf
70010084:	e59fd024 	ldr	sp, [pc, #36]	@ 700100b0 <_idle+0x20>

70010088 <_board_init>:
70010088:	eb000392 	bl	70010ed8 <board_init>

7001008c <_irq_enable>:
7001008c:	f1080080 	cpsie	i

70010090 <_idle>:
70010090:	e320f003 	wfi
70010094:	eafffffd 	b	70010090 <_idle>
70010098:	70010004 	andvc	r0, r1, r4
7001009c:	70010044 	andvc	r0, r1, r4, asr #32
700100a0:	70020300 	andvc	r0, r2, r0, lsl #6
700100a4:	70020200 	andvc	r0, r2, r0, lsl #4
700100a8:	70020500 	andvc	r0, r2, r0, lsl #10
700100ac:	70020600 	andvc	r0, r2, r0, lsl #12
700100b0:	70020100 	andvc	r0, r2, r0, lsl #2

700100b4 <handler_UND>:
700100b4:	eafffffe 	b	700100b4 <handler_UND>

700100b8 <handler_SWI>:
700100b8:	e24ee004 	sub	lr, lr, #4
700100bc:	e92d5fff 	push	{r0, r1, r2, r3, r4, r5, r6, r7, r8, r9, sl, fp, ip, lr}
700100c0:	e1a0000d 	mov	r0, sp
700100c4:	eb00038f 	bl	70010f08 <kernel_handler_svc>
700100c8:	e8fd9fff 	ldm	sp!, {r0, r1, r2, r3, r4, r5, r6, r7, r8, r9, sl, fp, ip, pc}^

700100cc <handler_prefetch_abort>:
700100cc:	eafffffe 	b	700100cc <handler_prefetch_abort>

700100d0 <handler_data_abort>:
700100d0:	eafffffe 	b	700100d0 <handler_data_abort>

700100d4 <handler_reserved>:
700100d4:	eafffffe 	b	700100d4 <handler_reserved>

700100d8 <handler_IRQ>:
700100d8:	e24ee004 	sub	lr, lr, #4
700100dc:	e92d5fff 	push	{r0, r1, r2, r3, r4, r5, r6, r7, r8, r9, sl, fp, ip, lr}
700100e0:	e1a0700d 	mov	r7, sp
700100e4:	e14f8000 	mrs	r8, SPSR
700100e8:	e92d0180 	push	{r7, r8}
700100ec:	e1a0000d 	mov	r0, sp
700100f0:	eb000471 	bl	700112bc <kernel_handler_irq>
700100f4:	e8bd0180 	pop	{r7, r8}
700100f8:	e169f008 	msr	SPSR_fc, r8
700100fc:	e1a0d007 	mov	sp, r7
70010100:	e8fd9fff 	ldm	sp!, {r0, r1, r2, r3, r4, r5, r6, r7, r8, r9, sl, fp, ip, pc}^

70010104 <handler_FIQ>:
70010104:	eafffffe 	b	70010104 <handler_FIQ>

70010108 <Printf>:
70010108:	e92d000f 	push	{r0, r1, r2, r3}
7001010c:	e92d4800 	push	{fp, lr}
70010110:	e28db004 	add	fp, sp, #4
70010114:	e24dd040 	sub	sp, sp, #64	@ 0x40
70010118:	e3a03a09 	mov	r3, #36864	@ 0x9000
7001011c:	e3413000 	movt	r3, #4096	@ 0x1000
70010120:	e50b3024 	str	r3, [fp, #-36]	@ 0xffffffdc
70010124:	e3a03000 	mov	r3, #0
70010128:	e50b3028 	str	r3, [fp, #-40]	@ 0xffffffd8
7001012c:	e28b3008 	add	r3, fp, #8
70010130:	e50b3044 	str	r3, [fp, #-68]	@ 0xffffffbc
70010134:	ea000152 	b	70010684 <Printf+0x57c>
70010138:	e3a03000 	mov	r3, #0
7001013c:	e50b3020 	str	r3, [fp, #-32]	@ 0xffffffe0
70010140:	ea000002 	b	70010150 <Printf+0x48>
70010144:	e51b3020 	ldr	r3, [fp, #-32]	@ 0xffffffe0
70010148:	e2833001 	add	r3, r3, #1
7001014c:	e50b3020 	str	r3, [fp, #-32]	@ 0xffffffe0
70010150:	e59b2004 	ldr	r2, [fp, #4]
70010154:	e51b3020 	ldr	r3, [fp, #-32]	@ 0xffffffe0
70010158:	e0823003 	add	r3, r2, r3
7001015c:	e5d33000 	ldrb	r3, [r3]
70010160:	e3530025 	cmp	r3, #37	@ 0x25
70010164:	0a000005 	beq	70010180 <Printf+0x78>
70010168:	e59b2004 	ldr	r2, [fp, #4]
7001016c:	e51b3020 	ldr	r3, [fp, #-32]	@ 0xffffffe0
70010170:	e0823003 	add	r3, r2, r3
70010174:	e5d33000 	ldrb	r3, [r3]
70010178:	e3530000 	cmp	r3, #0
7001017c:	1afffff0 	bne	70010144 <Printf+0x3c>
70010180:	e51b3020 	ldr	r3, [fp, #-32]	@ 0xffffffe0
70010184:	e6ff3073 	uxth	r3, r3
70010188:	e1a01003 	mov	r1, r3
7001018c:	e59b0004 	ldr	r0, [fp, #4]
70010190:	eb000330 	bl	70010e58 <print_f_len>
70010194:	e59b2004 	ldr	r2, [fp, #4]
70010198:	e51b3020 	ldr	r3, [fp, #-32]	@ 0xffffffe0
7001019c:	e0823003 	add	r3, r2, r3
700101a0:	e58b3004 	str	r3, [fp, #4]
700101a4:	e59b3004 	ldr	r3, [fp, #4]
700101a8:	e5d33000 	ldrb	r3, [r3]
700101ac:	e3530025 	cmp	r3, #37	@ 0x25
700101b0:	1a000133 	bne	70010684 <Printf+0x57c>
700101b4:	e59b3004 	ldr	r3, [fp, #4]
700101b8:	e2833001 	add	r3, r3, #1
700101bc:	e58b3004 	str	r3, [fp, #4]
700101c0:	e3a03000 	mov	r3, #0
700101c4:	e50b300c 	str	r3, [fp, #-12]
700101c8:	e3a03020 	mov	r3, #32
700101cc:	e54b3015 	strb	r3, [fp, #-21]	@ 0xffffffeb
700101d0:	e59b3004 	ldr	r3, [fp, #4]
700101d4:	e2832001 	add	r2, r3, #1
700101d8:	e58b2004 	str	r2, [fp, #4]
700101dc:	e5d33000 	ldrb	r3, [r3]
700101e0:	e3530078 	cmp	r3, #120	@ 0x78
700101e4:	ca000120 	bgt	7001066c <Printf+0x564>
700101e8:	e3530058 	cmp	r3, #88	@ 0x58
700101ec:	aa000007 	bge	70010210 <Printf+0x108>
700101f0:	e3530025 	cmp	r3, #37	@ 0x25
700101f4:	0a000116 	beq	70010654 <Printf+0x54c>
700101f8:	e3530025 	cmp	r3, #37	@ 0x25
700101fc:	ba00011a 	blt	7001066c <Printf+0x564>
70010200:	e2433030 	sub	r3, r3, #48	@ 0x30
70010204:	e3530009 	cmp	r3, #9
70010208:	8a000117 	bhi	7001066c <Printf+0x564>
7001020c:	ea000024 	b	700102a4 <Printf+0x19c>
70010210:	e2433058 	sub	r3, r3, #88	@ 0x58
70010214:	e3530020 	cmp	r3, #32
70010218:	979ff103 	ldrls	pc, [pc, r3, lsl #2]
7001021c:	ea000112 	b	7001066c <Printf+0x564>
70010220:	70010450 	andvc	r0, r1, r0, asr r4
70010224:	7001066c 	andvc	r0, r1, ip, ror #12
70010228:	7001066c 	andvc	r0, r1, ip, ror #12
7001022c:	7001066c 	andvc	r0, r1, ip, ror #12
70010230:	7001066c 	andvc	r0, r1, ip, ror #12
70010234:	7001066c 	andvc	r0, r1, ip, ror #12
70010238:	7001066c 	andvc	r0, r1, ip, ror #12
7001023c:	7001066c 	andvc	r0, r1, ip, ror #12
70010240:	7001066c 	andvc	r0, r1, ip, ror #12
70010244:	7001066c 	andvc	r0, r1, ip, ror #12
70010248:	7001066c 	andvc	r0, r1, ip, ror #12
7001024c:	70010300 	andvc	r0, r1, r0, lsl #6
70010250:	70010328 	andvc	r0, r1, r8, lsr #6
70010254:	7001066c 	andvc	r0, r1, ip, ror #12
70010258:	7001066c 	andvc	r0, r1, ip, ror #12
7001025c:	7001066c 	andvc	r0, r1, ip, ror #12
70010260:	7001066c 	andvc	r0, r1, ip, ror #12
70010264:	7001066c 	andvc	r0, r1, ip, ror #12
70010268:	7001066c 	andvc	r0, r1, ip, ror #12
7001026c:	7001066c 	andvc	r0, r1, ip, ror #12
70010270:	7001066c 	andvc	r0, r1, ip, ror #12
70010274:	7001066c 	andvc	r0, r1, ip, ror #12
70010278:	7001066c 	andvc	r0, r1, ip, ror #12
7001027c:	7001066c 	andvc	r0, r1, ip, ror #12
70010280:	70010450 	andvc	r0, r1, r0, asr r4
70010284:	7001066c 	andvc	r0, r1, ip, ror #12
70010288:	7001066c 	andvc	r0, r1, ip, ror #12
7001028c:	7001037c 	andvc	r0, r1, ip, ror r3
70010290:	7001066c 	andvc	r0, r1, ip, ror #12
70010294:	70010420 	andvc	r0, r1, r0, lsr #8
70010298:	7001066c 	andvc	r0, r1, ip, ror #12
7001029c:	7001066c 	andvc	r0, r1, ip, ror #12
700102a0:	70010450 	andvc	r0, r1, r0, asr r4
700102a4:	e59b3004 	ldr	r3, [fp, #4]
700102a8:	e2433001 	sub	r3, r3, #1
700102ac:	e5d33000 	ldrb	r3, [r3]
700102b0:	e3530030 	cmp	r3, #48	@ 0x30
700102b4:	1a000004 	bne	700102cc <Printf+0x1c4>
700102b8:	e51b300c 	ldr	r3, [fp, #-12]
700102bc:	e3530000 	cmp	r3, #0
700102c0:	1a000001 	bne	700102cc <Printf+0x1c4>
700102c4:	e3a03030 	mov	r3, #48	@ 0x30
700102c8:	e54b3015 	strb	r3, [fp, #-21]	@ 0xffffffeb
700102cc:	e51b300c 	ldr	r3, [fp, #-12]
700102d0:	e3a0200a 	mov	r2, #10
700102d4:	e0030392 	mul	r3, r2, r3
700102d8:	e50b300c 	str	r3, [fp, #-12]
700102dc:	e59b3004 	ldr	r3, [fp, #4]
700102e0:	e2433001 	sub	r3, r3, #1
700102e4:	e5d33000 	ldrb	r3, [r3]
700102e8:	e1a02003 	mov	r2, r3
700102ec:	e51b300c 	ldr	r3, [fp, #-12]
700102f0:	e0823003 	add	r3, r2, r3
700102f4:	e2433030 	sub	r3, r3, #48	@ 0x30
700102f8:	e50b300c 	str	r3, [fp, #-12]
700102fc:	eaffffb3 	b	700101d0 <Printf+0xc8>
70010300:	e51b3044 	ldr	r3, [fp, #-68]	@ 0xffffffbc
70010304:	e2832004 	add	r2, r3, #4
70010308:	e50b2044 	str	r2, [fp, #-68]	@ 0xffffffbc
7001030c:	e5933000 	ldr	r3, [r3]
70010310:	e50b3040 	str	r3, [fp, #-64]	@ 0xffffffc0
70010314:	e24b3040 	sub	r3, fp, #64	@ 0x40
70010318:	e3a01001 	mov	r1, #1
7001031c:	e1a00003 	mov	r0, r3
70010320:	eb0002cc 	bl	70010e58 <print_f_len>
70010324:	ea0000d6 	b	70010684 <Printf+0x57c>
70010328:	e51b3044 	ldr	r3, [fp, #-68]	@ 0xffffffbc
7001032c:	e2832004 	add	r2, r3, #4
70010330:	e50b2044 	str	r2, [fp, #-68]	@ 0xffffffbc
70010334:	e5933000 	ldr	r3, [r3]
70010338:	e50b3040 	str	r3, [fp, #-64]	@ 0xffffffc0
7001033c:	e3a03000 	mov	r3, #0
70010340:	e50b3008 	str	r3, [fp, #-8]
70010344:	e51b3040 	ldr	r3, [fp, #-64]	@ 0xffffffc0
70010348:	e3530000 	cmp	r3, #0
7001034c:	aa000005 	bge	70010368 <Printf+0x260>
70010350:	e51b3040 	ldr	r3, [fp, #-64]	@ 0xffffffc0
70010354:	e2633000 	rsb	r3, r3, #0
70010358:	e50b3040 	str	r3, [fp, #-64]	@ 0xffffffc0
7001035c:	e3a03001 	mov	r3, #1
70010360:	e50b3014 	str	r3, [fp, #-20]	@ 0xffffffec
70010364:	ea000001 	b	70010370 <Printf+0x268>
70010368:	e3a03000 	mov	r3, #0
7001036c:	e50b3014 	str	r3, [fp, #-20]	@ 0xffffffec
70010370:	e3a0300a 	mov	r3, #10
70010374:	e50b3010 	str	r3, [fp, #-16]
70010378:	ea00003f 	b	7001047c <Printf+0x374>
7001037c:	e51b3044 	ldr	r3, [fp, #-68]	@ 0xffffffbc
70010380:	e2832004 	add	r2, r3, #4
70010384:	e50b2044 	str	r2, [fp, #-68]	@ 0xffffffbc
70010388:	e5933000 	ldr	r3, [r3]
7001038c:	e50b302c 	str	r3, [fp, #-44]	@ 0xffffffd4
70010390:	e3a03000 	mov	r3, #0
70010394:	e50b3020 	str	r3, [fp, #-32]	@ 0xffffffe0
70010398:	ea000002 	b	700103a8 <Printf+0x2a0>
7001039c:	e51b3020 	ldr	r3, [fp, #-32]	@ 0xffffffe0
700103a0:	e2833001 	add	r3, r3, #1
700103a4:	e50b3020 	str	r3, [fp, #-32]	@ 0xffffffe0
700103a8:	e51b202c 	ldr	r2, [fp, #-44]	@ 0xffffffd4
700103ac:	e51b3020 	ldr	r3, [fp, #-32]	@ 0xffffffe0
700103b0:	e0823003 	add	r3, r2, r3
700103b4:	e5d33000 	ldrb	r3, [r3]
700103b8:	e3530000 	cmp	r3, #0
700103bc:	1afffff6 	bne	7001039c <Printf+0x294>
700103c0:	e51b3020 	ldr	r3, [fp, #-32]	@ 0xffffffe0
700103c4:	e6ff3073 	uxth	r3, r3
700103c8:	e1a01003 	mov	r1, r3
700103cc:	e51b002c 	ldr	r0, [fp, #-44]	@ 0xffffffd4
700103d0:	eb0002a0 	bl	70010e58 <print_f_len>
700103d4:	e51b200c 	ldr	r2, [fp, #-12]
700103d8:	e51b3020 	ldr	r3, [fp, #-32]	@ 0xffffffe0
700103dc:	e1520003 	cmp	r2, r3
700103e0:	9a0000a6 	bls	70010680 <Printf+0x578>
700103e4:	e51b200c 	ldr	r2, [fp, #-12]
700103e8:	e51b3020 	ldr	r3, [fp, #-32]	@ 0xffffffe0
700103ec:	e0423003 	sub	r3, r2, r3
700103f0:	e50b300c 	str	r3, [fp, #-12]
700103f4:	ea000003 	b	70010408 <Printf+0x300>
700103f8:	e3a01001 	mov	r1, #1
700103fc:	e3010204 	movw	r0, #4612	@ 0x1204
70010400:	e3470001 	movt	r0, #28673	@ 0x7001
70010404:	eb000293 	bl	70010e58 <print_f_len>
70010408:	e51b300c 	ldr	r3, [fp, #-12]
7001040c:	e2432001 	sub	r2, r3, #1
70010410:	e50b200c 	str	r2, [fp, #-12]
70010414:	e3530000 	cmp	r3, #0
70010418:	1afffff6 	bne	700103f8 <Printf+0x2f0>
7001041c:	ea000097 	b	70010680 <Printf+0x578>
70010420:	e51b3044 	ldr	r3, [fp, #-68]	@ 0xffffffbc
70010424:	e2832004 	add	r2, r3, #4
70010428:	e50b2044 	str	r2, [fp, #-68]	@ 0xffffffbc
7001042c:	e5933000 	ldr	r3, [r3]
70010430:	e50b3040 	str	r3, [fp, #-64]	@ 0xffffffc0
70010434:	e3a03000 	mov	r3, #0
70010438:	e50b3008 	str	r3, [fp, #-8]
7001043c:	e3a0300a 	mov	r3, #10
70010440:	e50b3010 	str	r3, [fp, #-16]
70010444:	e3a03000 	mov	r3, #0
70010448:	e50b3014 	str	r3, [fp, #-20]	@ 0xffffffec
7001044c:	ea00000a 	b	7001047c <Printf+0x374>
70010450:	e51b3044 	ldr	r3, [fp, #-68]	@ 0xffffffbc
70010454:	e2832004 	add	r2, r3, #4
70010458:	e50b2044 	str	r2, [fp, #-68]	@ 0xffffffbc
7001045c:	e5933000 	ldr	r3, [r3]
70010460:	e50b3040 	str	r3, [fp, #-64]	@ 0xffffffc0
70010464:	e3a03000 	mov	r3, #0
70010468:	e50b3008 	str	r3, [fp, #-8]
7001046c:	e3a03010 	mov	r3, #16
70010470:	e50b3010 	str	r3, [fp, #-16]
70010474:	e3a03000 	mov	r3, #0
70010478:	e50b3014 	str	r3, [fp, #-20]	@ 0xffffffec
7001047c:	e3a03001 	mov	r3, #1
70010480:	e50b3020 	str	r3, [fp, #-32]	@ 0xffffffe0
70010484:	ea000006 	b	700104a4 <Printf+0x39c>
70010488:	e51b3020 	ldr	r3, [fp, #-32]	@ 0xffffffe0
7001048c:	e51b2010 	ldr	r2, [fp, #-16]
70010490:	e0030392 	mul	r3, r2, r3
70010494:	e50b3020 	str	r3, [fp, #-32]	@ 0xffffffe0
70010498:	e51b300c 	ldr	r3, [fp, #-12]
7001049c:	e2433001 	sub	r3, r3, #1
700104a0:	e50b300c 	str	r3, [fp, #-12]
700104a4:	e51b3020 	ldr	r3, [fp, #-32]	@ 0xffffffe0
700104a8:	e51b2010 	ldr	r2, [fp, #-16]
700104ac:	e0020392 	mul	r2, r2, r3
700104b0:	e51b3040 	ldr	r3, [fp, #-64]	@ 0xffffffc0
700104b4:	e1520003 	cmp	r2, r3
700104b8:	8a000002 	bhi	700104c8 <Printf+0x3c0>
700104bc:	e51b3020 	ldr	r3, [fp, #-32]	@ 0xffffffe0
700104c0:	e3530201 	cmp	r3, #268435456	@ 0x10000000
700104c4:	1affffef 	bne	70010488 <Printf+0x380>
700104c8:	e51b3014 	ldr	r3, [fp, #-20]	@ 0xffffffec
700104cc:	e3530000 	cmp	r3, #0
700104d0:	0a000002 	beq	700104e0 <Printf+0x3d8>
700104d4:	e51b300c 	ldr	r3, [fp, #-12]
700104d8:	e2433001 	sub	r3, r3, #1
700104dc:	e50b300c 	str	r3, [fp, #-12]
700104e0:	e51b3014 	ldr	r3, [fp, #-20]	@ 0xffffffec
700104e4:	e3530000 	cmp	r3, #0
700104e8:	0a00000b 	beq	7001051c <Printf+0x414>
700104ec:	e55b3015 	ldrb	r3, [fp, #-21]	@ 0xffffffeb
700104f0:	e3530030 	cmp	r3, #48	@ 0x30
700104f4:	1a000008 	bne	7001051c <Printf+0x414>
700104f8:	e51b3008 	ldr	r3, [fp, #-8]
700104fc:	e2832001 	add	r2, r3, #1
70010500:	e50b2008 	str	r2, [fp, #-8]
70010504:	e2433004 	sub	r3, r3, #4
70010508:	e083300b 	add	r3, r3, fp
7001050c:	e3a0202d 	mov	r2, #45	@ 0x2d
70010510:	e5432038 	strb	r2, [r3, #-56]	@ 0xffffffc8
70010514:	e3a03000 	mov	r3, #0
70010518:	e50b3014 	str	r3, [fp, #-20]	@ 0xffffffec
7001051c:	e51b300c 	ldr	r3, [fp, #-12]
70010520:	e3530001 	cmp	r3, #1
70010524:	9a000013 	bls	70010578 <Printf+0x470>
70010528:	e51b300c 	ldr	r3, [fp, #-12]
7001052c:	e353000f 	cmp	r3, #15
70010530:	8a000010 	bhi	70010578 <Printf+0x470>
70010534:	e51b300c 	ldr	r3, [fp, #-12]
70010538:	e2433001 	sub	r3, r3, #1
7001053c:	e50b300c 	str	r3, [fp, #-12]
70010540:	ea000009 	b	7001056c <Printf+0x464>
70010544:	e51b3008 	ldr	r3, [fp, #-8]
70010548:	e2832001 	add	r2, r3, #1
7001054c:	e50b2008 	str	r2, [fp, #-8]
70010550:	e2433004 	sub	r3, r3, #4
70010554:	e083300b 	add	r3, r3, fp
70010558:	e55b2015 	ldrb	r2, [fp, #-21]	@ 0xffffffeb
7001055c:	e5432038 	strb	r2, [r3, #-56]	@ 0xffffffc8
70010560:	e51b300c 	ldr	r3, [fp, #-12]
70010564:	e2433001 	sub	r3, r3, #1
70010568:	e50b300c 	str	r3, [fp, #-12]
7001056c:	e51b300c 	ldr	r3, [fp, #-12]
70010570:	e3530000 	cmp	r3, #0
70010574:	1afffff2 	bne	70010544 <Printf+0x43c>
70010578:	e51b3014 	ldr	r3, [fp, #-20]	@ 0xffffffec
7001057c:	e3530000 	cmp	r3, #0
70010580:	0a000006 	beq	700105a0 <Printf+0x498>
70010584:	e51b3008 	ldr	r3, [fp, #-8]
70010588:	e2832001 	add	r2, r3, #1
7001058c:	e50b2008 	str	r2, [fp, #-8]
70010590:	e2433004 	sub	r3, r3, #4
70010594:	e083300b 	add	r3, r3, fp
70010598:	e3a0202d 	mov	r2, #45	@ 0x2d
7001059c:	e5432038 	strb	r2, [r3, #-56]	@ 0xffffffc8
700105a0:	e51b3040 	ldr	r3, [fp, #-64]	@ 0xffffffc0
700105a4:	e50b301c 	str	r3, [fp, #-28]	@ 0xffffffe4
700105a8:	ea00001f 	b	7001062c <Printf+0x524>
700105ac:	e51b1020 	ldr	r1, [fp, #-32]	@ 0xffffffe0
700105b0:	e51b001c 	ldr	r0, [fp, #-28]	@ 0xffffffe4
700105b4:	eb00003c 	bl	700106ac <div>
700105b8:	e50b0028 	str	r0, [fp, #-40]	@ 0xffffffd8
700105bc:	e30131ec 	movw	r3, #4588	@ 0x11ec
700105c0:	e3473001 	movt	r3, #28673	@ 0x7001
700105c4:	e51b2028 	ldr	r2, [fp, #-40]	@ 0xffffffd8
700105c8:	e0832002 	add	r2, r3, r2
700105cc:	e51b3008 	ldr	r3, [fp, #-8]
700105d0:	e2831001 	add	r1, r3, #1
700105d4:	e50b1008 	str	r1, [fp, #-8]
700105d8:	e5d22000 	ldrb	r2, [r2]
700105dc:	e2433004 	sub	r3, r3, #4
700105e0:	e083300b 	add	r3, r3, fp
700105e4:	e5432038 	strb	r2, [r3, #-56]	@ 0xffffffc8
700105e8:	e51b3020 	ldr	r3, [fp, #-32]	@ 0xffffffe0
700105ec:	e51b2028 	ldr	r2, [fp, #-40]	@ 0xffffffd8
700105f0:	e0030392 	mul	r3, r2, r3
700105f4:	e51b201c 	ldr	r2, [fp, #-28]	@ 0xffffffe4
700105f8:	e0423003 	sub	r3, r2, r3
700105fc:	e50b301c 	str	r3, [fp, #-28]	@ 0xffffffe4
70010600:	e51b3010 	ldr	r3, [fp, #-16]
70010604:	e353000a 	cmp	r3, #10
70010608:	1a000004 	bne	70010620 <Printf+0x518>
7001060c:	e51b1010 	ldr	r1, [fp, #-16]
70010610:	e51b0020 	ldr	r0, [fp, #-32]	@ 0xffffffe0
70010614:	eb000024 	bl	700106ac <div>
70010618:	e1a03000 	mov	r3, r0
7001061c:	ea000001 	b	70010628 <Printf+0x520>
70010620:	e51b3020 	ldr	r3, [fp, #-32]	@ 0xffffffe0
70010624:	e1a03223 	lsr	r3, r3, #4
70010628:	e50b3020 	str	r3, [fp, #-32]	@ 0xffffffe0
7001062c:	e51b3020 	ldr	r3, [fp, #-32]	@ 0xffffffe0
70010630:	e3530000 	cmp	r3, #0
70010634:	1affffdc 	bne	700105ac <Printf+0x4a4>
70010638:	e51b3008 	ldr	r3, [fp, #-8]
7001063c:	e6ff2073 	uxth	r2, r3
70010640:	e24b303c 	sub	r3, fp, #60	@ 0x3c
70010644:	e1a01002 	mov	r1, r2
70010648:	e1a00003 	mov	r0, r3
7001064c:	eb000201 	bl	70010e58 <print_f_len>
70010650:	ea00000b 	b	70010684 <Printf+0x57c>
70010654:	e59b3004 	ldr	r3, [fp, #4]
70010658:	e2433001 	sub	r3, r3, #1
7001065c:	e3a01001 	mov	r1, #1
70010660:	e1a00003 	mov	r0, r3
70010664:	eb0001fb 	bl	70010e58 <print_f_len>
70010668:	ea000005 	b	70010684 <Printf+0x57c>
7001066c:	e3a01005 	mov	r1, #5
70010670:	e3010208 	movw	r0, #4616	@ 0x1208
70010674:	e3470001 	movt	r0, #28673	@ 0x7001
70010678:	eb0001f6 	bl	70010e58 <print_f_len>
7001067c:	ea000000 	b	70010684 <Printf+0x57c>
70010680:	e320f000 	nop	{0}
70010684:	e59b3004 	ldr	r3, [fp, #4]
70010688:	e5d33000 	ldrb	r3, [r3]
7001068c:	e3530000 	cmp	r3, #0
70010690:	1afffea8 	bne	70010138 <Printf+0x30>
70010694:	e320f000 	nop	{0}
70010698:	e320f000 	nop	{0}
7001069c:	e24bd004 	sub	sp, fp, #4
700106a0:	e8bd4800 	pop	{fp, lr}
700106a4:	e28dd010 	add	sp, sp, #16
700106a8:	e12fff1e 	bx	lr

700106ac <div>:
700106ac:	e52db004 	push	{fp}		@ (str fp, [sp, #-4]!)
700106b0:	e28db000 	add	fp, sp, #0
700106b4:	e24dd014 	sub	sp, sp, #20
700106b8:	e50b0010 	str	r0, [fp, #-16]
700106bc:	e50b1014 	str	r1, [fp, #-20]	@ 0xffffffec
700106c0:	e3a03000 	mov	r3, #0
700106c4:	e50b3008 	str	r3, [fp, #-8]
700106c8:	ea000006 	b	700106e8 <div+0x3c>
700106cc:	e51b2010 	ldr	r2, [fp, #-16]
700106d0:	e51b3014 	ldr	r3, [fp, #-20]	@ 0xffffffec
700106d4:	e0423003 	sub	r3, r2, r3
700106d8:	e50b3010 	str	r3, [fp, #-16]
700106dc:	e51b3008 	ldr	r3, [fp, #-8]
700106e0:	e2833001 	add	r3, r3, #1
700106e4:	e50b3008 	str	r3, [fp, #-8]
700106e8:	e51b2010 	ldr	r2, [fp, #-16]
700106ec:	e51b3014 	ldr	r3, [fp, #-20]	@ 0xffffffec
700106f0:	e1520003 	cmp	r2, r3
700106f4:	2afffff4 	bcs	700106cc <div+0x20>
700106f8:	e51b3008 	ldr	r3, [fp, #-8]
700106fc:	e1a00003 	mov	r0, r3
70010700:	e28bd000 	add	sp, fp, #0
70010704:	e49db004 	pop	{fp}		@ (ldr fp, [sp], #4)
70010708:	e12fff1e 	bx	lr

7001070c <__gic_init>:
7001070c:	e52db004 	push	{fp}		@ (str fp, [sp, #-4]!)
70010710:	e28db000 	add	fp, sp, #0
70010714:	e24dd00c 	sub	sp, sp, #12
70010718:	e3a0341e 	mov	r3, #503316480	@ 0x1e000000
7001071c:	e50b3008 	str	r3, [fp, #-8]
70010720:	e3a03a01 	mov	r3, #4096	@ 0x1000
70010724:	e3413e00 	movt	r3, #7680	@ 0x1e00
70010728:	e50b300c 	str	r3, [fp, #-12]
7001072c:	e51b3008 	ldr	r3, [fp, #-8]
70010730:	e3a020f0 	mov	r2, #240	@ 0xf0
70010734:	e5832004 	str	r2, [r3, #4]
70010738:	e51b300c 	ldr	r3, [fp, #-12]
7001073c:	e5933104 	ldr	r3, [r3, #260]	@ 0x104
70010740:	e3832010 	orr	r2, r3, #16
70010744:	e51b300c 	ldr	r3, [fp, #-12]
70010748:	e5832104 	str	r2, [r3, #260]	@ 0x104
7001074c:	e51b300c 	ldr	r3, [fp, #-12]
70010750:	e5933104 	ldr	r3, [r3, #260]	@ 0x104
70010754:	e3832a01 	orr	r2, r3, #4096	@ 0x1000
70010758:	e51b300c 	ldr	r3, [fp, #-12]
7001075c:	e5832104 	str	r2, [r3, #260]	@ 0x104
70010760:	e51b3008 	ldr	r3, [fp, #-8]
70010764:	e3a02001 	mov	r2, #1
70010768:	e5832000 	str	r2, [r3]
7001076c:	e51b300c 	ldr	r3, [fp, #-12]
70010770:	e3a02001 	mov	r2, #1
70010774:	e5832000 	str	r2, [r3]
70010778:	e320f000 	nop	{0}
7001077c:	e28bd000 	add	sp, fp, #0
70010780:	e49db004 	pop	{fp}		@ (ldr fp, [sp], #4)
70010784:	e12fff1e 	bx	lr

70010788 <__scheduler_init>:
70010788:	e92d4800 	push	{fp, lr}
7001078c:	e28db004 	add	fp, sp, #4
70010790:	e24dd008 	sub	sp, sp, #8
70010794:	e3a03000 	mov	r3, #0
70010798:	e50b3008 	str	r3, [fp, #-8]
7001079c:	ea000030 	b	70010864 <__scheduler_init+0xdc>
700107a0:	e3012574 	movw	r2, #5492	@ 0x1574
700107a4:	e3472001 	movt	r2, #28673	@ 0x7001
700107a8:	e51b3008 	ldr	r3, [fp, #-8]
700107ac:	e1a03203 	lsl	r3, r3, #4
700107b0:	e0823003 	add	r3, r2, r3
700107b4:	e51b2008 	ldr	r2, [fp, #-8]
700107b8:	e583200c 	str	r2, [r3, #12]
700107bc:	e30135b4 	movw	r3, #5556	@ 0x15b4
700107c0:	e3473001 	movt	r3, #28673	@ 0x7001
700107c4:	e51b2008 	ldr	r2, [fp, #-8]
700107c8:	e7931102 	ldr	r1, [r3, r2, lsl #2]
700107cc:	e3012574 	movw	r2, #5492	@ 0x1574
700107d0:	e3472001 	movt	r2, #28673	@ 0x7001
700107d4:	e51b3008 	ldr	r3, [fp, #-8]
700107d8:	e1a03203 	lsl	r3, r3, #4
700107dc:	e0823003 	add	r3, r2, r3
700107e0:	e5831008 	str	r1, [r3, #8]
700107e4:	e30135d4 	movw	r3, #5588	@ 0x15d4
700107e8:	e3473001 	movt	r3, #28673	@ 0x7001
700107ec:	e51b2008 	ldr	r2, [fp, #-8]
700107f0:	e7931102 	ldr	r1, [r3, r2, lsl #2]
700107f4:	e3012574 	movw	r2, #5492	@ 0x1574
700107f8:	e3472001 	movt	r2, #28673	@ 0x7001
700107fc:	e51b3008 	ldr	r3, [fp, #-8]
70010800:	e1a03203 	lsl	r3, r3, #4
70010804:	e0823003 	add	r3, r2, r3
70010808:	e5831004 	str	r1, [r3, #4]
7001080c:	e30135e4 	movw	r3, #5604	@ 0x15e4
70010810:	e3473001 	movt	r3, #28673	@ 0x7001
70010814:	e51b2008 	ldr	r2, [fp, #-8]
70010818:	e7931102 	ldr	r1, [r3, r2, lsl #2]
7001081c:	e3013574 	movw	r3, #5492	@ 0x1574
70010820:	e3473001 	movt	r3, #28673	@ 0x7001
70010824:	e51b2008 	ldr	r2, [fp, #-8]
70010828:	e7831202 	str	r1, [r3, r2, lsl #4]
7001082c:	e51b3008 	ldr	r3, [fp, #-8]
70010830:	e1a02203 	lsl	r2, r3, #4
70010834:	e3013574 	movw	r3, #5492	@ 0x1574
70010838:	e3473001 	movt	r3, #28673	@ 0x7001
7001083c:	e0820003 	add	r0, r2, r3
70010840:	e30135c4 	movw	r3, #5572	@ 0x15c4
70010844:	e3473001 	movt	r3, #28673	@ 0x7001
70010848:	e51b2008 	ldr	r2, [fp, #-8]
7001084c:	e7933102 	ldr	r3, [r3, r2, lsl #2]
70010850:	e1a01003 	mov	r1, r3
70010854:	eb0001d8 	bl	70010fbc <preparar_contexto_tarea>
70010858:	e51b3008 	ldr	r3, [fp, #-8]
7001085c:	e2833001 	add	r3, r3, #1
70010860:	e50b3008 	str	r3, [fp, #-8]
70010864:	e51b3008 	ldr	r3, [fp, #-8]
70010868:	e3530003 	cmp	r3, #3
7001086c:	9affffcb 	bls	700107a0 <__scheduler_init+0x18>
70010870:	e320f000 	nop	{0}
70010874:	e320f000 	nop	{0}
70010878:	e24bd004 	sub	sp, fp, #4
7001087c:	e8bd8800 	pop	{fp, pc}

70010880 <__scheduler>:
70010880:	e52db004 	push	{fp}		@ (str fp, [sp, #-4]!)
70010884:	e28db000 	add	fp, sp, #0
70010888:	e24dd00c 	sub	sp, sp, #12
7001088c:	e3013564 	movw	r3, #5476	@ 0x1564
70010890:	e3473001 	movt	r3, #28673	@ 0x7001
70010894:	e5933000 	ldr	r3, [r3]
70010898:	e2832001 	add	r2, r3, #1
7001089c:	e3013564 	movw	r3, #5476	@ 0x1564
700108a0:	e3473001 	movt	r3, #28673	@ 0x7001
700108a4:	e5832000 	str	r2, [r3]
700108a8:	e3013568 	movw	r3, #5480	@ 0x1568
700108ac:	e3473001 	movt	r3, #28673	@ 0x7001
700108b0:	e5933000 	ldr	r3, [r3]
700108b4:	e50b3008 	str	r3, [fp, #-8]
700108b8:	e3012574 	movw	r2, #5492	@ 0x1574
700108bc:	e3472001 	movt	r2, #28673	@ 0x7001
700108c0:	e51b3008 	ldr	r3, [fp, #-8]
700108c4:	e1a03203 	lsl	r3, r3, #4
700108c8:	e0823003 	add	r3, r2, r3
700108cc:	e5932008 	ldr	r2, [r3, #8]
700108d0:	e3013564 	movw	r3, #5476	@ 0x1564
700108d4:	e3473001 	movt	r3, #28673	@ 0x7001
700108d8:	e5933000 	ldr	r3, [r3]
700108dc:	e1520003 	cmp	r2, r3
700108e0:	8a000027 	bhi	70010984 <__scheduler+0x104>
700108e4:	e3013564 	movw	r3, #5476	@ 0x1564
700108e8:	e3473001 	movt	r3, #28673	@ 0x7001
700108ec:	e3a02000 	mov	r2, #0
700108f0:	e5832000 	str	r2, [r3]
700108f4:	e3013568 	movw	r3, #5480	@ 0x1568
700108f8:	e3473001 	movt	r3, #28673	@ 0x7001
700108fc:	e5933000 	ldr	r3, [r3]
70010900:	e2833001 	add	r3, r3, #1
70010904:	e2033003 	and	r3, r3, #3
70010908:	e3012574 	movw	r2, #5492	@ 0x1574
7001090c:	e3472001 	movt	r2, #28673	@ 0x7001
70010910:	e1a03203 	lsl	r3, r3, #4
70010914:	e0823003 	add	r3, r2, r3
70010918:	e593200c 	ldr	r2, [r3, #12]
7001091c:	e3013568 	movw	r3, #5480	@ 0x1568
70010920:	e3473001 	movt	r3, #28673	@ 0x7001
70010924:	e5832000 	str	r2, [r3]
70010928:	e3013570 	movw	r3, #5488	@ 0x1570
7001092c:	e3473001 	movt	r3, #28673	@ 0x7001
70010930:	e5931000 	ldr	r1, [r3]
70010934:	e3012574 	movw	r2, #5492	@ 0x1574
70010938:	e3472001 	movt	r2, #28673	@ 0x7001
7001093c:	e51b3008 	ldr	r3, [fp, #-8]
70010940:	e1a03203 	lsl	r3, r3, #4
70010944:	e0823003 	add	r3, r2, r3
70010948:	e5831004 	str	r1, [r3, #4]
7001094c:	f1020013 	cps	#19
70010950:	e1a0100d 	mov	r1, sp
70010954:	e3013574 	movw	r3, #5492	@ 0x1574
70010958:	e3473001 	movt	r3, #28673	@ 0x7001
7001095c:	e51b2008 	ldr	r2, [fp, #-8]
70010960:	e7831202 	str	r1, [r3, r2, lsl #4]
70010964:	e3013568 	movw	r3, #5480	@ 0x1568
70010968:	e3473001 	movt	r3, #28673	@ 0x7001
7001096c:	e5932000 	ldr	r2, [r3]
70010970:	e3013574 	movw	r3, #5492	@ 0x1574
70010974:	e3473001 	movt	r3, #28673	@ 0x7001
70010978:	e7933202 	ldr	r3, [r3, r2, lsl #4]
7001097c:	e1a0d003 	mov	sp, r3
70010980:	f1020012 	cps	#18
70010984:	e301356c 	movw	r3, #5484	@ 0x156c
70010988:	e3473001 	movt	r3, #28673	@ 0x7001
7001098c:	e5933000 	ldr	r3, [r3]
70010990:	e3530000 	cmp	r3, #0
70010994:	0a00000a 	beq	700109c4 <__scheduler+0x144>
70010998:	e301356c 	movw	r3, #5484	@ 0x156c
7001099c:	e3473001 	movt	r3, #28673	@ 0x7001
700109a0:	e3a02000 	mov	r2, #0
700109a4:	e5832000 	str	r2, [r3]
700109a8:	f1020013 	cps	#19
700109ac:	e3013574 	movw	r3, #5492	@ 0x1574
700109b0:	e3473001 	movt	r3, #28673	@ 0x7001
700109b4:	e51b2008 	ldr	r2, [fp, #-8]
700109b8:	e7933202 	ldr	r3, [r3, r2, lsl #4]
700109bc:	e1a0d003 	mov	sp, r3
700109c0:	f1020012 	cps	#18
700109c4:	e3013568 	movw	r3, #5480	@ 0x1568
700109c8:	e3473001 	movt	r3, #28673	@ 0x7001
700109cc:	e5933000 	ldr	r3, [r3]
700109d0:	e3012574 	movw	r2, #5492	@ 0x1574
700109d4:	e3472001 	movt	r2, #28673	@ 0x7001
700109d8:	e1a03203 	lsl	r3, r3, #4
700109dc:	e0823003 	add	r3, r2, r3
700109e0:	e5933004 	ldr	r3, [r3, #4]
700109e4:	e1a00003 	mov	r0, r3
700109e8:	e28bd000 	add	sp, fp, #0
700109ec:	e49db004 	pop	{fp}		@ (ldr fp, [sp], #4)
700109f0:	e12fff1e 	bx	lr

700109f4 <__timer_init>:
700109f4:	e52db004 	push	{fp}		@ (str fp, [sp, #-4]!)
700109f8:	e28db000 	add	fp, sp, #0
700109fc:	e24dd00c 	sub	sp, sp, #12
70010a00:	e3a03a01 	mov	r3, #4096	@ 0x1000
70010a04:	e3413001 	movt	r3, #4097	@ 0x1001
70010a08:	e50b3008 	str	r3, [fp, #-8]
70010a0c:	e51b3008 	ldr	r3, [fp, #-8]
70010a10:	e3a02801 	mov	r2, #65536	@ 0x10000
70010a14:	e5832000 	str	r2, [r3]
70010a18:	e51b3008 	ldr	r3, [fp, #-8]
70010a1c:	e3a02002 	mov	r2, #2
70010a20:	e5832008 	str	r2, [r3, #8]
70010a24:	e51b3008 	ldr	r3, [fp, #-8]
70010a28:	e5933008 	ldr	r3, [r3, #8]
70010a2c:	e3832040 	orr	r2, r3, #64	@ 0x40
70010a30:	e51b3008 	ldr	r3, [fp, #-8]
70010a34:	e5832008 	str	r2, [r3, #8]
70010a38:	e51b3008 	ldr	r3, [fp, #-8]
70010a3c:	e5933008 	ldr	r3, [r3, #8]
70010a40:	e3832020 	orr	r2, r3, #32
70010a44:	e51b3008 	ldr	r3, [fp, #-8]
70010a48:	e5832008 	str	r2, [r3, #8]
70010a4c:	e51b3008 	ldr	r3, [fp, #-8]
70010a50:	e5933008 	ldr	r3, [r3, #8]
70010a54:	e3832080 	orr	r2, r3, #128	@ 0x80
70010a58:	e51b3008 	ldr	r3, [fp, #-8]
70010a5c:	e5832008 	str	r2, [r3, #8]
70010a60:	e320f000 	nop	{0}
70010a64:	e28bd000 	add	sp, fp, #0
70010a68:	e49db004 	pop	{fp}		@ (ldr fp, [sp], #4)
70010a6c:	e12fff1e 	bx	lr

70010a70 <__uart_init>:
70010a70:	e52db004 	push	{fp}		@ (str fp, [sp, #-4]!)
70010a74:	e28db000 	add	fp, sp, #0
70010a78:	e24dd014 	sub	sp, sp, #20
70010a7c:	e1a03000 	mov	r3, r0
70010a80:	e54b300d 	strb	r3, [fp, #-13]
70010a84:	e3a03000 	mov	r3, #0
70010a88:	e50b3008 	str	r3, [fp, #-8]
70010a8c:	e3a03000 	mov	r3, #0
70010a90:	e54b3009 	strb	r3, [fp, #-9]
70010a94:	e3a03000 	mov	r3, #0
70010a98:	e54b300a 	strb	r3, [fp, #-10]
70010a9c:	e55b300d 	ldrb	r3, [fp, #-13]
70010aa0:	e3530003 	cmp	r3, #3
70010aa4:	979ff103 	ldrls	pc, [pc, r3, lsl #2]
70010aa8:	ea00001d 	b	70010b24 <__uart_init+0xb4>
70010aac:	70010abc 			@ <UNDEFINED> instruction: 0x70010abc
70010ab0:	70010adc 	ldrdvc	r0, [r1], -ip
70010ab4:	70010af4 	strdvc	r0, [r1], -r4
70010ab8:	70010b0c 	andvc	r0, r1, ip, lsl #22
70010abc:	e3a03a09 	mov	r3, #36864	@ 0x9000
70010ac0:	e3413000 	movt	r3, #4096	@ 0x1000
70010ac4:	e50b3008 	str	r3, [fp, #-8]
70010ac8:	e3a03001 	mov	r3, #1
70010acc:	e54b3009 	strb	r3, [fp, #-9]
70010ad0:	e3a03001 	mov	r3, #1
70010ad4:	e54b300a 	strb	r3, [fp, #-10]
70010ad8:	ea000014 	b	70010b30 <__uart_init+0xc0>
70010adc:	e3a03a0a 	mov	r3, #40960	@ 0xa000
70010ae0:	e3413000 	movt	r3, #4096	@ 0x1000
70010ae4:	e50b3008 	str	r3, [fp, #-8]
70010ae8:	e3a03001 	mov	r3, #1
70010aec:	e54b3009 	strb	r3, [fp, #-9]
70010af0:	ea00000e 	b	70010b30 <__uart_init+0xc0>
70010af4:	e3a03a0b 	mov	r3, #45056	@ 0xb000
70010af8:	e3413000 	movt	r3, #4096	@ 0x1000
70010afc:	e50b3008 	str	r3, [fp, #-8]
70010b00:	e3a03001 	mov	r3, #1
70010b04:	e54b3009 	strb	r3, [fp, #-9]
70010b08:	ea000008 	b	70010b30 <__uart_init+0xc0>
70010b0c:	e3a03903 	mov	r3, #49152	@ 0xc000
70010b10:	e3413000 	movt	r3, #4096	@ 0x1000
70010b14:	e50b3008 	str	r3, [fp, #-8]
70010b18:	e3a03001 	mov	r3, #1
70010b1c:	e54b3009 	strb	r3, [fp, #-9]
70010b20:	ea000002 	b	70010b30 <__uart_init+0xc0>
70010b24:	e3a03000 	mov	r3, #0
70010b28:	e54b3009 	strb	r3, [fp, #-9]
70010b2c:	e320f000 	nop	{0}
70010b30:	e55b3009 	ldrb	r3, [fp, #-9]
70010b34:	e3530001 	cmp	r3, #1
70010b38:	1a00000a 	bne	70010b68 <__uart_init+0xf8>
70010b3c:	e55b300a 	ldrb	r3, [fp, #-10]
70010b40:	e3530000 	cmp	r3, #0
70010b44:	1a000004 	bne	70010b5c <__uart_init+0xec>
70010b48:	e51b3008 	ldr	r3, [fp, #-8]
70010b4c:	e5933038 	ldr	r3, [r3, #56]	@ 0x38
70010b50:	e3832010 	orr	r2, r3, #16
70010b54:	e51b3008 	ldr	r3, [fp, #-8]
70010b58:	e5832038 	str	r2, [r3, #56]	@ 0x38
70010b5c:	e51b3008 	ldr	r3, [fp, #-8]
70010b60:	e3002301 	movw	r2, #769	@ 0x301
70010b64:	e5832030 	str	r2, [r3, #48]	@ 0x30
70010b68:	e51b3008 	ldr	r3, [fp, #-8]
70010b6c:	e1a00003 	mov	r0, r3
70010b70:	e28bd000 	add	sp, fp, #0
70010b74:	e49db004 	pop	{fp}		@ (ldr fp, [sp], #4)
70010b78:	e12fff1e 	bx	lr

70010b7c <xtoi>:
70010b7c:	e52db004 	push	{fp}		@ (str fp, [sp, #-4]!)
70010b80:	e28db000 	add	fp, sp, #0
70010b84:	e24dd00c 	sub	sp, sp, #12
70010b88:	e1a03000 	mov	r3, r0
70010b8c:	e54b3005 	strb	r3, [fp, #-5]
70010b90:	e55b3005 	ldrb	r3, [fp, #-5]
70010b94:	e353002f 	cmp	r3, #47	@ 0x2f
70010b98:	9a000005 	bls	70010bb4 <xtoi+0x38>
70010b9c:	e55b3005 	ldrb	r3, [fp, #-5]
70010ba0:	e3530039 	cmp	r3, #57	@ 0x39
70010ba4:	8a000002 	bhi	70010bb4 <xtoi+0x38>
70010ba8:	e55b3005 	ldrb	r3, [fp, #-5]
70010bac:	e2433030 	sub	r3, r3, #48	@ 0x30
70010bb0:	ea000012 	b	70010c00 <xtoi+0x84>
70010bb4:	e55b3005 	ldrb	r3, [fp, #-5]
70010bb8:	e3530060 	cmp	r3, #96	@ 0x60
70010bbc:	9a000005 	bls	70010bd8 <xtoi+0x5c>
70010bc0:	e55b3005 	ldrb	r3, [fp, #-5]
70010bc4:	e3530066 	cmp	r3, #102	@ 0x66
70010bc8:	8a000002 	bhi	70010bd8 <xtoi+0x5c>
70010bcc:	e55b3005 	ldrb	r3, [fp, #-5]
70010bd0:	e2433057 	sub	r3, r3, #87	@ 0x57
70010bd4:	ea000009 	b	70010c00 <xtoi+0x84>
70010bd8:	e55b3005 	ldrb	r3, [fp, #-5]
70010bdc:	e3530040 	cmp	r3, #64	@ 0x40
70010be0:	9a000005 	bls	70010bfc <xtoi+0x80>
70010be4:	e55b3005 	ldrb	r3, [fp, #-5]
70010be8:	e3530046 	cmp	r3, #70	@ 0x46
70010bec:	8a000002 	bhi	70010bfc <xtoi+0x80>
70010bf0:	e55b3005 	ldrb	r3, [fp, #-5]
70010bf4:	e2433037 	sub	r3, r3, #55	@ 0x37
70010bf8:	ea000000 	b	70010c00 <xtoi+0x84>
70010bfc:	e3e03000 	mvn	r3, #0
70010c00:	e1a00003 	mov	r0, r3
70010c04:	e28bd000 	add	sp, fp, #0
70010c08:	e49db004 	pop	{fp}		@ (ldr fp, [sp], #4)
70010c0c:	e12fff1e 	bx	lr

70010c10 <itox>:
70010c10:	e52db004 	push	{fp}		@ (str fp, [sp, #-4]!)
70010c14:	e28db000 	add	fp, sp, #0
70010c18:	e24dd00c 	sub	sp, sp, #12
70010c1c:	e50b0008 	str	r0, [fp, #-8]
70010c20:	e51b3008 	ldr	r3, [fp, #-8]
70010c24:	e3530000 	cmp	r3, #0
70010c28:	ba000007 	blt	70010c4c <itox+0x3c>
70010c2c:	e51b3008 	ldr	r3, [fp, #-8]
70010c30:	e3530009 	cmp	r3, #9
70010c34:	ca000004 	bgt	70010c4c <itox+0x3c>
70010c38:	e51b3008 	ldr	r3, [fp, #-8]
70010c3c:	e6ef3073 	uxtb	r3, r3
70010c40:	e2833030 	add	r3, r3, #48	@ 0x30
70010c44:	e6ef3073 	uxtb	r3, r3
70010c48:	ea00000b 	b	70010c7c <itox+0x6c>
70010c4c:	e51b3008 	ldr	r3, [fp, #-8]
70010c50:	e3530009 	cmp	r3, #9
70010c54:	da000007 	ble	70010c78 <itox+0x68>
70010c58:	e51b3008 	ldr	r3, [fp, #-8]
70010c5c:	e353000f 	cmp	r3, #15
70010c60:	ca000004 	bgt	70010c78 <itox+0x68>
70010c64:	e51b3008 	ldr	r3, [fp, #-8]
70010c68:	e6ef3073 	uxtb	r3, r3
70010c6c:	e2833037 	add	r3, r3, #55	@ 0x37
70010c70:	e6ef3073 	uxtb	r3, r3
70010c74:	ea000000 	b	70010c7c <itox+0x6c>
70010c78:	e3a030ff 	mov	r3, #255	@ 0xff
70010c7c:	e1a00003 	mov	r0, r3
70010c80:	e28bd000 	add	sp, fp, #0
70010c84:	e49db004 	pop	{fp}		@ (ldr fp, [sp], #4)
70010c88:	e12fff1e 	bx	lr

70010c8c <uart_putc>:
70010c8c:	e52db004 	push	{fp}		@ (str fp, [sp, #-4]!)
70010c90:	e28db000 	add	fp, sp, #0
70010c94:	e24dd00c 	sub	sp, sp, #12
70010c98:	e50b0008 	str	r0, [fp, #-8]
70010c9c:	e1a03001 	mov	r3, r1
70010ca0:	e54b3009 	strb	r3, [fp, #-9]
70010ca4:	e320f000 	nop	{0}
70010ca8:	e51b3008 	ldr	r3, [fp, #-8]
70010cac:	e5933018 	ldr	r3, [r3, #24]
70010cb0:	e2033020 	and	r3, r3, #32
70010cb4:	e3530000 	cmp	r3, #0
70010cb8:	1afffffa 	bne	70010ca8 <uart_putc+0x1c>
70010cbc:	e55b2009 	ldrb	r2, [fp, #-9]
70010cc0:	e51b3008 	ldr	r3, [fp, #-8]
70010cc4:	e5832000 	str	r2, [r3]
70010cc8:	e320f000 	nop	{0}
70010ccc:	e28bd000 	add	sp, fp, #0
70010cd0:	e49db004 	pop	{fp}		@ (ldr fp, [sp], #4)
70010cd4:	e12fff1e 	bx	lr

70010cd8 <uart_getc>:
70010cd8:	e52db004 	push	{fp}		@ (str fp, [sp, #-4]!)
70010cdc:	e28db000 	add	fp, sp, #0
70010ce0:	e24dd00c 	sub	sp, sp, #12
70010ce4:	e50b0008 	str	r0, [fp, #-8]
70010ce8:	e320f000 	nop	{0}
70010cec:	e51b3008 	ldr	r3, [fp, #-8]
70010cf0:	e5933018 	ldr	r3, [r3, #24]
70010cf4:	e2033010 	and	r3, r3, #16
70010cf8:	e3530000 	cmp	r3, #0
70010cfc:	1afffffa 	bne	70010cec <uart_getc+0x14>
70010d00:	e51b3008 	ldr	r3, [fp, #-8]
70010d04:	e5933000 	ldr	r3, [r3]
70010d08:	e6ef3073 	uxtb	r3, r3
70010d0c:	e1a00003 	mov	r0, r3
70010d10:	e28bd000 	add	sp, fp, #0
70010d14:	e49db004 	pop	{fp}		@ (ldr fp, [sp], #4)
70010d18:	e12fff1e 	bx	lr

70010d1c <uart_puth>:
70010d1c:	e92d4800 	push	{fp, lr}
70010d20:	e28db004 	add	fp, sp, #4
70010d24:	e24dd008 	sub	sp, sp, #8
70010d28:	e50b0008 	str	r0, [fp, #-8]
70010d2c:	e1a03001 	mov	r3, r1
70010d30:	e54b3009 	strb	r3, [fp, #-9]
70010d34:	e55b3009 	ldrb	r3, [fp, #-9]
70010d38:	e1a03223 	lsr	r3, r3, #4
70010d3c:	e6ef3073 	uxtb	r3, r3
70010d40:	e203300f 	and	r3, r3, #15
70010d44:	e1a00003 	mov	r0, r3
70010d48:	ebffffb0 	bl	70010c10 <itox>
70010d4c:	e1a03000 	mov	r3, r0
70010d50:	e1a01003 	mov	r1, r3
70010d54:	e51b0008 	ldr	r0, [fp, #-8]
70010d58:	ebffffcb 	bl	70010c8c <uart_putc>
70010d5c:	e55b3009 	ldrb	r3, [fp, #-9]
70010d60:	e203300f 	and	r3, r3, #15
70010d64:	e1a00003 	mov	r0, r3
70010d68:	ebffffa8 	bl	70010c10 <itox>
70010d6c:	e1a03000 	mov	r3, r0
70010d70:	e1a01003 	mov	r1, r3
70010d74:	e51b0008 	ldr	r0, [fp, #-8]
70010d78:	ebffffc3 	bl	70010c8c <uart_putc>
70010d7c:	e320f000 	nop	{0}
70010d80:	e24bd004 	sub	sp, fp, #4
70010d84:	e8bd8800 	pop	{fp, pc}

70010d88 <uart_geth>:
70010d88:	e92d4800 	push	{fp, lr}
70010d8c:	e28db004 	add	fp, sp, #4
70010d90:	e24dd010 	sub	sp, sp, #16
70010d94:	e50b0010 	str	r0, [fp, #-16]
70010d98:	e51b0010 	ldr	r0, [fp, #-16]
70010d9c:	ebffffcd 	bl	70010cd8 <uart_getc>
70010da0:	e1a03000 	mov	r3, r0
70010da4:	e1a00003 	mov	r0, r3
70010da8:	ebffff73 	bl	70010b7c <xtoi>
70010dac:	e1a03000 	mov	r3, r0
70010db0:	e6ef3073 	uxtb	r3, r3
70010db4:	e1a03203 	lsl	r3, r3, #4
70010db8:	e54b3005 	strb	r3, [fp, #-5]
70010dbc:	e51b0010 	ldr	r0, [fp, #-16]
70010dc0:	ebffffc4 	bl	70010cd8 <uart_getc>
70010dc4:	e1a03000 	mov	r3, r0
70010dc8:	e1a00003 	mov	r0, r3
70010dcc:	ebffff6a 	bl	70010b7c <xtoi>
70010dd0:	e1a03000 	mov	r3, r0
70010dd4:	e6af2073 	sxtb	r2, r3
70010dd8:	e15b30d5 	ldrsb	r3, [fp, #-5]
70010ddc:	e1823003 	orr	r3, r2, r3
70010de0:	e6af3073 	sxtb	r3, r3
70010de4:	e54b3005 	strb	r3, [fp, #-5]
70010de8:	e55b3005 	ldrb	r3, [fp, #-5]
70010dec:	e1a00003 	mov	r0, r3
70010df0:	e24bd004 	sub	sp, fp, #4
70010df4:	e8bd8800 	pop	{fp, pc}

70010df8 <print_f>:
70010df8:	e92d4800 	push	{fp, lr}
70010dfc:	e28db004 	add	fp, sp, #4
70010e00:	e24dd010 	sub	sp, sp, #16
70010e04:	e50b0010 	str	r0, [fp, #-16]
70010e08:	e3a03a09 	mov	r3, #36864	@ 0x9000
70010e0c:	e3413000 	movt	r3, #4096	@ 0x1000
70010e10:	e50b3008 	str	r3, [fp, #-8]
70010e14:	ea000007 	b	70010e38 <print_f+0x40>
70010e18:	e51b3010 	ldr	r3, [fp, #-16]
70010e1c:	e5d33000 	ldrb	r3, [r3]
70010e20:	e1a01003 	mov	r1, r3
70010e24:	e51b0008 	ldr	r0, [fp, #-8]
70010e28:	ebffff97 	bl	70010c8c <uart_putc>
70010e2c:	e51b3010 	ldr	r3, [fp, #-16]
70010e30:	e2833001 	add	r3, r3, #1
70010e34:	e50b3010 	str	r3, [fp, #-16]
70010e38:	e51b3010 	ldr	r3, [fp, #-16]
70010e3c:	e5d33000 	ldrb	r3, [r3]
70010e40:	e3530000 	cmp	r3, #0
70010e44:	1afffff3 	bne	70010e18 <print_f+0x20>
70010e48:	e320f000 	nop	{0}
70010e4c:	e320f000 	nop	{0}
70010e50:	e24bd004 	sub	sp, fp, #4
70010e54:	e8bd8800 	pop	{fp, pc}

70010e58 <print_f_len>:
70010e58:	e92d4800 	push	{fp, lr}
70010e5c:	e28db004 	add	fp, sp, #4
70010e60:	e24dd010 	sub	sp, sp, #16
70010e64:	e50b0010 	str	r0, [fp, #-16]
70010e68:	e1a03001 	mov	r3, r1
70010e6c:	e14b31b2 	strh	r3, [fp, #-18]	@ 0xffffffee
70010e70:	e3a03a09 	mov	r3, #36864	@ 0x9000
70010e74:	e3413000 	movt	r3, #4096	@ 0x1000
70010e78:	e50b300c 	str	r3, [fp, #-12]
70010e7c:	e3a03000 	mov	r3, #0
70010e80:	e14b30b6 	strh	r3, [fp, #-6]
70010e84:	e3a03000 	mov	r3, #0
70010e88:	e14b30b6 	strh	r3, [fp, #-6]
70010e8c:	ea000009 	b	70010eb8 <print_f_len+0x60>
70010e90:	e15b30b6 	ldrh	r3, [fp, #-6]
70010e94:	e51b2010 	ldr	r2, [fp, #-16]
70010e98:	e0823003 	add	r3, r2, r3
70010e9c:	e5d33000 	ldrb	r3, [r3]
70010ea0:	e1a01003 	mov	r1, r3
70010ea4:	e51b000c 	ldr	r0, [fp, #-12]
70010ea8:	ebffff77 	bl	70010c8c <uart_putc>
70010eac:	e15b30b6 	ldrh	r3, [fp, #-6]
70010eb0:	e2833001 	add	r3, r3, #1
70010eb4:	e14b30b6 	strh	r3, [fp, #-6]
70010eb8:	e15b20b6 	ldrh	r2, [fp, #-6]
70010ebc:	e15b31b2 	ldrh	r3, [fp, #-18]	@ 0xffffffee
70010ec0:	e1520003 	cmp	r2, r3
70010ec4:	3afffff1 	bcc	70010e90 <print_f_len+0x38>
70010ec8:	e320f000 	nop	{0}
70010ecc:	e320f000 	nop	{0}
70010ed0:	e24bd004 	sub	sp, fp, #4
70010ed4:	e8bd8800 	pop	{fp, pc}

70010ed8 <board_init>:
70010ed8:	e92d4800 	push	{fp, lr}
70010edc:	e28db004 	add	fp, sp, #4
70010ee0:	e24dd008 	sub	sp, sp, #8
70010ee4:	ebfffe08 	bl	7001070c <__gic_init>
70010ee8:	ebfffec1 	bl	700109f4 <__timer_init>
70010eec:	ebfffe25 	bl	70010788 <__scheduler_init>
70010ef0:	e3a00000 	mov	r0, #0
70010ef4:	ebfffedd 	bl	70010a70 <__uart_init>
70010ef8:	e50b0008 	str	r0, [fp, #-8]
70010efc:	e320f000 	nop	{0}
70010f00:	e24bd004 	sub	sp, fp, #4
70010f04:	e8bd8800 	pop	{fp, pc}

70010f08 <kernel_handler_svc>:
70010f08:	e92d4800 	push	{fp, lr}
70010f0c:	e28db004 	add	fp, sp, #4
70010f10:	e24dd020 	sub	sp, sp, #32
70010f14:	e50b0020 	str	r0, [fp, #-32]	@ 0xffffffe0
70010f18:	e51b3020 	ldr	r3, [fp, #-32]	@ 0xffffffe0
70010f1c:	e2833034 	add	r3, r3, #52	@ 0x34
70010f20:	e5933000 	ldr	r3, [r3]
70010f24:	e50b3008 	str	r3, [fp, #-8]
70010f28:	e51b3008 	ldr	r3, [fp, #-8]
70010f2c:	e5133004 	ldr	r3, [r3, #-4]
70010f30:	e50b300c 	str	r3, [fp, #-12]
70010f34:	e51b300c 	ldr	r3, [fp, #-12]
70010f38:	e3c334ff 	bic	r3, r3, #-16777216	@ 0xff000000
70010f3c:	e50b3010 	str	r3, [fp, #-16]
70010f40:	e51b3010 	ldr	r3, [fp, #-16]
70010f44:	e3530000 	cmp	r3, #0
70010f48:	0a000003 	beq	70010f5c <kernel_handler_svc+0x54>
70010f4c:	e51b3010 	ldr	r3, [fp, #-16]
70010f50:	e3530001 	cmp	r3, #1
70010f54:	0a000008 	beq	70010f7c <kernel_handler_svc+0x74>
70010f58:	ea00000f 	b	70010f9c <kernel_handler_svc+0x94>
70010f5c:	e51b3020 	ldr	r3, [fp, #-32]	@ 0xffffffe0
70010f60:	e5933000 	ldr	r3, [r3]
70010f64:	e50b3018 	str	r3, [fp, #-24]	@ 0xffffffe8
70010f68:	e51b1018 	ldr	r1, [fp, #-24]	@ 0xffffffe8
70010f6c:	e3010210 	movw	r0, #4624	@ 0x1210
70010f70:	e3470001 	movt	r0, #28673	@ 0x7001
70010f74:	ebfffc63 	bl	70010108 <Printf>
70010f78:	ea00000c 	b	70010fb0 <kernel_handler_svc+0xa8>
70010f7c:	e51b3020 	ldr	r3, [fp, #-32]	@ 0xffffffe0
70010f80:	e5933000 	ldr	r3, [r3]
70010f84:	e50b3014 	str	r3, [fp, #-20]	@ 0xffffffec
70010f88:	e51b1014 	ldr	r1, [fp, #-20]	@ 0xffffffec
70010f8c:	e3010214 	movw	r0, #4628	@ 0x1214
70010f90:	e3470001 	movt	r0, #28673	@ 0x7001
70010f94:	ebfffc5b 	bl	70010108 <Printf>
70010f98:	ea000004 	b	70010fb0 <kernel_handler_svc+0xa8>
70010f9c:	e51b1010 	ldr	r1, [fp, #-16]
70010fa0:	e3010218 	movw	r0, #4632	@ 0x1218
70010fa4:	e3470001 	movt	r0, #28673	@ 0x7001
70010fa8:	ebfffc56 	bl	70010108 <Printf>
70010fac:	e320f000 	nop	{0}
70010fb0:	e320f000 	nop	{0}
70010fb4:	e24bd004 	sub	sp, fp, #4
70010fb8:	e8bd8800 	pop	{fp, pc}

70010fbc <preparar_contexto_tarea>:
70010fbc:	e52db004 	push	{fp}		@ (str fp, [sp, #-4]!)
70010fc0:	e28db000 	add	fp, sp, #0
70010fc4:	e24dd014 	sub	sp, sp, #20
70010fc8:	e50b0010 	str	r0, [fp, #-16]
70010fcc:	e50b1014 	str	r1, [fp, #-20]	@ 0xffffffec
70010fd0:	e51b3010 	ldr	r3, [fp, #-16]
70010fd4:	e5933004 	ldr	r3, [r3, #4]
70010fd8:	e50b300c 	str	r3, [fp, #-12]
70010fdc:	e51b300c 	ldr	r3, [fp, #-12]
70010fe0:	e2433004 	sub	r3, r3, #4
70010fe4:	e50b300c 	str	r3, [fp, #-12]
70010fe8:	e51b300c 	ldr	r3, [fp, #-12]
70010fec:	e3002113 	movw	r2, #275	@ 0x113
70010ff0:	e5832000 	str	r2, [r3]
70010ff4:	e51b300c 	ldr	r3, [fp, #-12]
70010ff8:	e2433004 	sub	r3, r3, #4
70010ffc:	e50b300c 	str	r3, [fp, #-12]
70011000:	e51b2014 	ldr	r2, [fp, #-20]	@ 0xffffffec
70011004:	e51b300c 	ldr	r3, [fp, #-12]
70011008:	e5832000 	str	r2, [r3]
7001100c:	e3a03000 	mov	r3, #0
70011010:	e50b3008 	str	r3, [fp, #-8]
70011014:	ea000008 	b	7001103c <preparar_contexto_tarea+0x80>
70011018:	e51b300c 	ldr	r3, [fp, #-12]
7001101c:	e2433004 	sub	r3, r3, #4
70011020:	e50b300c 	str	r3, [fp, #-12]
70011024:	e51b300c 	ldr	r3, [fp, #-12]
70011028:	e3a02000 	mov	r2, #0
7001102c:	e5832000 	str	r2, [r3]
70011030:	e51b3008 	ldr	r3, [fp, #-8]
70011034:	e2833001 	add	r3, r3, #1
70011038:	e50b3008 	str	r3, [fp, #-8]
7001103c:	e51b3008 	ldr	r3, [fp, #-8]
70011040:	e353000c 	cmp	r3, #12
70011044:	dafffff3 	ble	70011018 <preparar_contexto_tarea+0x5c>
70011048:	e51b300c 	ldr	r3, [fp, #-12]
7001104c:	e2433004 	sub	r3, r3, #4
70011050:	e50b300c 	str	r3, [fp, #-12]
70011054:	e51b200c 	ldr	r2, [fp, #-12]
70011058:	e51b300c 	ldr	r3, [fp, #-12]
7001105c:	e5832000 	str	r2, [r3]
70011060:	e51b3010 	ldr	r3, [fp, #-16]
70011064:	e51b200c 	ldr	r2, [fp, #-12]
70011068:	e5832004 	str	r2, [r3, #4]
7001106c:	e320f000 	nop	{0}
70011070:	e28bd000 	add	sp, fp, #0
70011074:	e49db004 	pop	{fp}		@ (ldr fp, [sp], #4)
70011078:	e12fff1e 	bx	lr

7001107c <syscall_print_string>:
7001107c:	e52db004 	push	{fp}		@ (str fp, [sp, #-4]!)
70011080:	e28db000 	add	fp, sp, #0
70011084:	e24dd00c 	sub	sp, sp, #12
70011088:	e50b0008 	str	r0, [fp, #-8]
7001108c:	e51b3008 	ldr	r3, [fp, #-8]
70011090:	e1a00003 	mov	r0, r3
70011094:	ef000000 	svc	0x00000000
70011098:	e320f000 	nop	{0}
7001109c:	e28bd000 	add	sp, fp, #0
700110a0:	e49db004 	pop	{fp}		@ (ldr fp, [sp], #4)
700110a4:	e12fff1e 	bx	lr

700110a8 <syscall_print_uint>:
700110a8:	e52db004 	push	{fp}		@ (str fp, [sp, #-4]!)
700110ac:	e28db000 	add	fp, sp, #0
700110b0:	e24dd00c 	sub	sp, sp, #12
700110b4:	e50b0008 	str	r0, [fp, #-8]
700110b8:	e51b3008 	ldr	r3, [fp, #-8]
700110bc:	e1a00003 	mov	r0, r3
700110c0:	ef000001 	svc	0x00000001
700110c4:	e320f000 	nop	{0}
700110c8:	e28bd000 	add	sp, fp, #0
700110cc:	e49db004 	pop	{fp}		@ (ldr fp, [sp], #4)
700110d0:	e12fff1e 	bx	lr

700110d4 <__udivsi3>:
700110d4:	e2512001 	subs	r2, r1, #1
700110d8:	012fff1e 	bxeq	lr
700110dc:	3a000036 	bcc	700111bc <__udivsi3+0xe8>
700110e0:	e1500001 	cmp	r0, r1
700110e4:	9a000022 	bls	70011174 <__udivsi3+0xa0>
700110e8:	e1110002 	tst	r1, r2
700110ec:	0a000023 	beq	70011180 <__udivsi3+0xac>
700110f0:	e311020e 	tst	r1, #-536870912	@ 0xe0000000
700110f4:	01a01181 	lsleq	r1, r1, #3
700110f8:	03a03008 	moveq	r3, #8
700110fc:	13a03001 	movne	r3, #1
70011100:	e3510201 	cmp	r1, #268435456	@ 0x10000000
70011104:	31510000 	cmpcc	r1, r0
70011108:	31a01201 	lslcc	r1, r1, #4
7001110c:	31a03203 	lslcc	r3, r3, #4
70011110:	3afffffa 	bcc	70011100 <__udivsi3+0x2c>
70011114:	e3510102 	cmp	r1, #-2147483648	@ 0x80000000
70011118:	31510000 	cmpcc	r1, r0
7001111c:	31a01081 	lslcc	r1, r1, #1
70011120:	31a03083 	lslcc	r3, r3, #1
70011124:	3afffffa 	bcc	70011114 <__udivsi3+0x40>
70011128:	e3a02000 	mov	r2, #0
7001112c:	e1500001 	cmp	r0, r1
70011130:	20400001 	subcs	r0, r0, r1
70011134:	21822003 	orrcs	r2, r2, r3
70011138:	e15000a1 	cmp	r0, r1, lsr #1
7001113c:	204000a1 	subcs	r0, r0, r1, lsr #1
70011140:	218220a3 	orrcs	r2, r2, r3, lsr #1
70011144:	e1500121 	cmp	r0, r1, lsr #2
70011148:	20400121 	subcs	r0, r0, r1, lsr #2
7001114c:	21822123 	orrcs	r2, r2, r3, lsr #2
70011150:	e15001a1 	cmp	r0, r1, lsr #3
70011154:	204001a1 	subcs	r0, r0, r1, lsr #3
70011158:	218221a3 	orrcs	r2, r2, r3, lsr #3
7001115c:	e3500000 	cmp	r0, #0
70011160:	11b03223 	lsrsne	r3, r3, #4
70011164:	11a01221 	lsrne	r1, r1, #4
70011168:	1affffef 	bne	7001112c <__udivsi3+0x58>
7001116c:	e1a00002 	mov	r0, r2
70011170:	e12fff1e 	bx	lr
70011174:	03a00001 	moveq	r0, #1
70011178:	13a00000 	movne	r0, #0
7001117c:	e12fff1e 	bx	lr
70011180:	e3510801 	cmp	r1, #65536	@ 0x10000
70011184:	21a01821 	lsrcs	r1, r1, #16
70011188:	23a02010 	movcs	r2, #16
7001118c:	33a02000 	movcc	r2, #0
70011190:	e3510c01 	cmp	r1, #256	@ 0x100
70011194:	21a01421 	lsrcs	r1, r1, #8
70011198:	22822008 	addcs	r2, r2, #8
7001119c:	e3510010 	cmp	r1, #16
700111a0:	21a01221 	lsrcs	r1, r1, #4
700111a4:	22822004 	addcs	r2, r2, #4
700111a8:	e3510004 	cmp	r1, #4
700111ac:	82822003 	addhi	r2, r2, #3
700111b0:	908220a1 	addls	r2, r2, r1, lsr #1
700111b4:	e1a00230 	lsr	r0, r0, r2
700111b8:	e12fff1e 	bx	lr
700111bc:	e3500000 	cmp	r0, #0
700111c0:	13e00000 	mvnne	r0, #0
700111c4:	ea000007 	b	700111e8 <__aeabi_idiv0>

700111c8 <__aeabi_uidivmod>:
700111c8:	e3510000 	cmp	r1, #0
700111cc:	0afffffa 	beq	700111bc <__udivsi3+0xe8>
700111d0:	e92d4003 	push	{r0, r1, lr}
700111d4:	ebffffbe 	bl	700110d4 <__udivsi3>
700111d8:	e8bd4006 	pop	{r1, r2, lr}
700111dc:	e0030092 	mul	r3, r2, r0
700111e0:	e0411003 	sub	r1, r1, r3
700111e4:	e12fff1e 	bx	lr

700111e8 <__aeabi_idiv0>:
700111e8:	e12fff1e 	bx	lr

Disassembly of section .rodata:

700111ec <g_pcHex-0x14>:
700111ec:	33323130 	teqcc	r2, #48, 2
700111f0:	37363534 			@ <UNDEFINED> instruction: 0x37363534
700111f4:	42413938 	submi	r3, r1, #56, 18	@ 0xe0000
700111f8:	46454443 	strbmi	r4, [r5], -r3, asr #8
700111fc:	00000000 	andeq	r0, r0, r0

70011200 <g_pcHex>:
70011200:	700111ec 	andvc	r1, r1, ip, ror #3
70011204:	00000020 	andeq	r0, r0, r0, lsr #32
70011208:	4f525245 	svcmi	0x00525245
7001120c:	00000052 	andeq	r0, r0, r2, asr r0
70011210:	00007325 	andeq	r7, r0, r5, lsr #6
70011214:	00007525 	andeq	r7, r0, r5, lsr #10
70011218:	72654b5b 	rsbvc	r4, r5, #93184	@ 0x16c00
7001121c:	5d6c656e 	cfstr64pl	mvdx6, [ip, #-440]!	@ 0xfffffe48
70011220:	72724520 	rsbsvc	r4, r2, #32, 10	@ 0x8000000
70011224:	203a726f 	eorscs	r7, sl, pc, ror #4
70011228:	63737953 	cmnvs	r3, #1359872	@ 0x14c000
7001122c:	206c6c61 	rsbcs	r6, ip, r1, ror #24
70011230:	63736564 	cmnvs	r3, #100, 10	@ 0x19000000
70011234:	636f6e6f 	cmnvs	pc, #1776	@ 0x6f0
70011238:	20616469 	rsbcs	r6, r1, r9, ror #8
7001123c:	656d756e 	strbvs	r7, [sp, #-1390]!	@ 0xfffffa92
70011240:	25206f72 	strcs	r6, [r0, #-3954]!	@ 0xfffff08e
70011244:	00000a64 	andeq	r0, r0, r4, ror #20
70011248:	65726154 	ldrbvs	r6, [r2, #-340]!	@ 0xfffffeac
7001124c:	3a312061 	bcc	70c593d8 <__system_stack_tasks_end__+0xc385d8>
70011250:	62694620 	rsbvs	r4, r9, #32, 12	@ 0x2000000
70011254:	63616e6f 	cmnvs	r1, #1776	@ 0x6f0
70011258:	000a6963 	andeq	r6, sl, r3, ror #18
7001125c:	00000020 	andeq	r0, r0, r0, lsr #32
70011260:	65726154 	ldrbvs	r6, [r2, #-340]!	@ 0xfffffeac
70011264:	3a322061 	bcc	70c993f0 <__system_stack_tasks_end__+0xc785f0>
70011268:	6e6f4320 	cdpvs	3, 6, cr4, cr15, cr0, {1}
7001126c:	7574656a 	ldrbvc	r6, [r4, #-1386]!	@ 0xfffffa96
70011270:	64206172 	strtvs	r6, [r0], #-370	@ 0xfffffe8e
70011274:	6f432065 	svcvs	0x00432065
70011278:	74616c6c 	strbtvc	r6, [r1], #-3180	@ 0xfffff394
7001127c:	6170207a 	cmnvs	r0, sl, ror r0
70011280:	6e206172 	mcrvs	1, 1, r6, cr0, cr2, {3}
70011284:	0a37323d 	beq	70dddb80 <__system_stack_tasks_end__+0xdbcd80>
70011288:	00000000 	andeq	r0, r0, r0
7001128c:	203e2d20 	eorscs	r2, lr, r0, lsr #26
70011290:	00000000 	andeq	r0, r0, r0
70011294:	0000000a 	andeq	r0, r0, sl
70011298:	65726154 	ldrbvs	r6, [r2, #-340]!	@ 0xfffffeac
7001129c:	3a332061 	bcc	70cd9428 <__system_stack_tasks_end__+0xcb8628>
700112a0:	63614620 	cmnvs	r1, #32, 12	@ 0x2000000
700112a4:	65726f74 	ldrbvs	r6, [r2, #-3956]!	@ 0xfffff08c
700112a8:	72702073 	rsbsvc	r2, r0, #115	@ 0x73
700112ac:	736f6d69 	cmnvc	pc, #6720	@ 0x1a40
700112b0:	20656420 	rsbcs	r6, r5, r0, lsr #8
700112b4:	00000000 	andeq	r0, r0, r0
700112b8:	Address 0x700112b8 is out of bounds.


Disassembly of section .handler:

700112bc <kernel_handler_irq>:
700112bc:	e92d4800 	push	{fp, lr}
700112c0:	e28db004 	add	fp, sp, #4
700112c4:	e24dd010 	sub	sp, sp, #16
700112c8:	e50b0010 	str	r0, [fp, #-16]
700112cc:	e30b3eef 	movw	r3, #48879	@ 0xbeef
700112d0:	e34d3ead 	movt	r3, #57005	@ 0xdead
700112d4:	e50b3008 	str	r3, [fp, #-8]
700112d8:	e3a0341e 	mov	r3, #503316480	@ 0x1e000000
700112dc:	e593300c 	ldr	r3, [r3, #12]
700112e0:	e7e83053 	ubfx	r3, r3, #0, #9
700112e4:	e50b300c 	str	r3, [fp, #-12]
700112e8:	e51b3010 	ldr	r3, [fp, #-16]
700112ec:	e5933000 	ldr	r3, [r3]
700112f0:	e2433008 	sub	r3, r3, #8
700112f4:	e1a02003 	mov	r2, r3
700112f8:	e3013570 	movw	r3, #5488	@ 0x1570
700112fc:	e3473001 	movt	r3, #28673	@ 0x7001
70011300:	e5832000 	str	r2, [r3]
70011304:	e51b300c 	ldr	r3, [fp, #-12]
70011308:	e3530024 	cmp	r3, #36	@ 0x24
7001130c:	1a00000c 	bne	70011344 <kernel_handler_irq+0x88>
70011310:	e3a03a01 	mov	r3, #4096	@ 0x1000
70011314:	e3413001 	movt	r3, #4097	@ 0x1001
70011318:	e5933010 	ldr	r3, [r3, #16]
7001131c:	e2033001 	and	r3, r3, #1
70011320:	e3530000 	cmp	r3, #0
70011324:	0a000008 	beq	7001134c <kernel_handler_irq+0x90>
70011328:	e3a03a01 	mov	r3, #4096	@ 0x1000
7001132c:	e3413001 	movt	r3, #4097	@ 0x1001
70011330:	e3a02007 	mov	r2, #7
70011334:	e583200c 	str	r2, [r3, #12]
70011338:	ebfffd50 	bl	70010880 <__scheduler>
7001133c:	e50b0008 	str	r0, [fp, #-8]
70011340:	ea000001 	b	7001134c <kernel_handler_irq+0x90>
70011344:	e320f000 	nop	{0}
70011348:	ea000000 	b	70011350 <kernel_handler_irq+0x94>
7001134c:	e320f000 	nop	{0}
70011350:	e3a0341e 	mov	r3, #503316480	@ 0x1e000000
70011354:	e5932010 	ldr	r2, [r3, #16]
70011358:	e3a0141e 	mov	r1, #503316480	@ 0x1e000000
7001135c:	e51b300c 	ldr	r3, [fp, #-12]
70011360:	e1823003 	orr	r3, r2, r3
70011364:	e5813010 	str	r3, [r1, #16]
70011368:	e51b3008 	ldr	r3, [fp, #-8]
7001136c:	e1a00003 	mov	r0, r3
70011370:	e24bd004 	sub	sp, fp, #4
70011374:	e8bd8800 	pop	{fp, pc}

Disassembly of section .tarea_idle_text:

70011378 <tarea_idle>:
70011378:	e52db004 	push	{fp}		@ (str fp, [sp, #-4]!)
7001137c:	e28db000 	add	fp, sp, #0
70011380:	e320f003 	wfi
70011384:	eafffffd 	b	70011380 <tarea_idle+0x8>

Disassembly of section .tarea_1_text:

70011388 <tarea_1>:
70011388:	e92d4800 	push	{fp, lr}
7001138c:	e28db004 	add	fp, sp, #4
70011390:	e24dd010 	sub	sp, sp, #16
70011394:	e3a03000 	mov	r3, #0
70011398:	e50b3008 	str	r3, [fp, #-8]
7001139c:	e3a03001 	mov	r3, #1
700113a0:	e50b300c 	str	r3, [fp, #-12]
700113a4:	e3010248 	movw	r0, #4680	@ 0x1248
700113a8:	e3470001 	movt	r0, #28673	@ 0x7001
700113ac:	ebffff32 	bl	7001107c <syscall_print_string>
700113b0:	e3a03000 	mov	r3, #0
700113b4:	e50b3010 	str	r3, [fp, #-16]
700113b8:	ea00000f 	b	700113fc <tarea_1+0x74>
700113bc:	e51b0008 	ldr	r0, [fp, #-8]
700113c0:	ebffff38 	bl	700110a8 <syscall_print_uint>
700113c4:	e301025c 	movw	r0, #4700	@ 0x125c
700113c8:	e3470001 	movt	r0, #28673	@ 0x7001
700113cc:	ebffff2a 	bl	7001107c <syscall_print_string>
700113d0:	e51b2008 	ldr	r2, [fp, #-8]
700113d4:	e51b300c 	ldr	r3, [fp, #-12]
700113d8:	e0823003 	add	r3, r2, r3
700113dc:	e50b3014 	str	r3, [fp, #-20]	@ 0xffffffec
700113e0:	e51b300c 	ldr	r3, [fp, #-12]
700113e4:	e50b3008 	str	r3, [fp, #-8]
700113e8:	e51b3014 	ldr	r3, [fp, #-20]	@ 0xffffffec
700113ec:	e50b300c 	str	r3, [fp, #-12]
700113f0:	e51b3010 	ldr	r3, [fp, #-16]
700113f4:	e2833001 	add	r3, r3, #1
700113f8:	e50b3010 	str	r3, [fp, #-16]
700113fc:	e51b3010 	ldr	r3, [fp, #-16]
70011400:	e3530009 	cmp	r3, #9
70011404:	daffffec 	ble	700113bc <tarea_1+0x34>
70011408:	e320f003 	wfi
7001140c:	eafffffd 	b	70011408 <tarea_1+0x80>

Disassembly of section .tarea_2_text:

70011410 <tarea_2>:
70011410:	e92d4800 	push	{fp, lr}
70011414:	e28db004 	add	fp, sp, #4
70011418:	e24dd008 	sub	sp, sp, #8
7001141c:	e3a0301b 	mov	r3, #27
70011420:	e50b3008 	str	r3, [fp, #-8]
70011424:	e3010260 	movw	r0, #4704	@ 0x1260
70011428:	e3470001 	movt	r0, #28673	@ 0x7001
7001142c:	ebffff12 	bl	7001107c <syscall_print_string>
70011430:	e51b0008 	ldr	r0, [fp, #-8]
70011434:	ebffff1b 	bl	700110a8 <syscall_print_uint>
70011438:	ea000012 	b	70011488 <tarea_2+0x78>
7001143c:	e51b3008 	ldr	r3, [fp, #-8]
70011440:	e2033001 	and	r3, r3, #1
70011444:	e3530000 	cmp	r3, #0
70011448:	1a000003 	bne	7001145c <tarea_2+0x4c>
7001144c:	e51b3008 	ldr	r3, [fp, #-8]
70011450:	e1a030a3 	lsr	r3, r3, #1
70011454:	e50b3008 	str	r3, [fp, #-8]
70011458:	ea000005 	b	70011474 <tarea_2+0x64>
7001145c:	e51b2008 	ldr	r2, [fp, #-8]
70011460:	e1a03002 	mov	r3, r2
70011464:	e1a03083 	lsl	r3, r3, #1
70011468:	e0833002 	add	r3, r3, r2
7001146c:	e2833001 	add	r3, r3, #1
70011470:	e50b3008 	str	r3, [fp, #-8]
70011474:	e301028c 	movw	r0, #4748	@ 0x128c
70011478:	e3470001 	movt	r0, #28673	@ 0x7001
7001147c:	ebfffefe 	bl	7001107c <syscall_print_string>
70011480:	e51b0008 	ldr	r0, [fp, #-8]
70011484:	ebffff07 	bl	700110a8 <syscall_print_uint>
70011488:	e51b3008 	ldr	r3, [fp, #-8]
7001148c:	e3530001 	cmp	r3, #1
70011490:	8affffe9 	bhi	7001143c <tarea_2+0x2c>
70011494:	e3010294 	movw	r0, #4756	@ 0x1294
70011498:	e3470001 	movt	r0, #28673	@ 0x7001
7001149c:	ebfffef6 	bl	7001107c <syscall_print_string>
700114a0:	e320f003 	wfi
700114a4:	eafffffd 	b	700114a0 <tarea_2+0x90>

Disassembly of section .tarea_3_text:

700114a8 <tarea_3>:
700114a8:	e92d4800 	push	{fp, lr}
700114ac:	e28db004 	add	fp, sp, #4
700114b0:	e24dd010 	sub	sp, sp, #16
700114b4:	e30236f7 	movw	r3, #9975	@ 0x26f7
700114b8:	e50b3010 	str	r3, [fp, #-16]
700114bc:	e51b3010 	ldr	r3, [fp, #-16]
700114c0:	e50b3008 	str	r3, [fp, #-8]
700114c4:	e3a03002 	mov	r3, #2
700114c8:	e50b300c 	str	r3, [fp, #-12]
700114cc:	e3010298 	movw	r0, #4760	@ 0x1298
700114d0:	e3470001 	movt	r0, #28673	@ 0x7001
700114d4:	ebfffee8 	bl	7001107c <syscall_print_string>
700114d8:	e51b0010 	ldr	r0, [fp, #-16]
700114dc:	ebfffef1 	bl	700110a8 <syscall_print_uint>
700114e0:	e30102b8 	movw	r0, #4792	@ 0x12b8
700114e4:	e3470001 	movt	r0, #28673	@ 0x7001
700114e8:	ebfffee3 	bl	7001107c <syscall_print_string>
700114ec:	ea000014 	b	70011544 <tarea_3+0x9c>
700114f0:	e51b3008 	ldr	r3, [fp, #-8]
700114f4:	e51b100c 	ldr	r1, [fp, #-12]
700114f8:	e1a00003 	mov	r0, r3
700114fc:	ebffff31 	bl	700111c8 <__aeabi_uidivmod>
70011500:	e1a03001 	mov	r3, r1
70011504:	e3530000 	cmp	r3, #0
70011508:	1a00000a 	bne	70011538 <tarea_3+0x90>
7001150c:	e51b000c 	ldr	r0, [fp, #-12]
70011510:	ebfffee4 	bl	700110a8 <syscall_print_uint>
70011514:	e301025c 	movw	r0, #4700	@ 0x125c
70011518:	e3470001 	movt	r0, #28673	@ 0x7001
7001151c:	ebfffed6 	bl	7001107c <syscall_print_string>
70011520:	e51b100c 	ldr	r1, [fp, #-12]
70011524:	e51b0008 	ldr	r0, [fp, #-8]
70011528:	ebfffee9 	bl	700110d4 <__udivsi3>
7001152c:	e1a03000 	mov	r3, r0
70011530:	e50b3008 	str	r3, [fp, #-8]
70011534:	ea000002 	b	70011544 <tarea_3+0x9c>
70011538:	e51b300c 	ldr	r3, [fp, #-12]
7001153c:	e2833001 	add	r3, r3, #1
70011540:	e50b300c 	str	r3, [fp, #-12]
70011544:	e51b3008 	ldr	r3, [fp, #-8]
70011548:	e3530001 	cmp	r3, #1
7001154c:	8affffe7 	bhi	700114f0 <tarea_3+0x48>
70011550:	e3010294 	movw	r0, #4756	@ 0x1294
70011554:	e3470001 	movt	r0, #28673	@ 0x7001
70011558:	ebfffec7 	bl	7001107c <syscall_print_string>
7001155c:	e320f003 	wfi
70011560:	eafffffd 	b	7001155c <tarea_3+0xb4>

Disassembly of section .data:

70011564 <ticks>:
70011564:	00000000 	andeq	r0, r0, r0

70011568 <tarea_nueva>:
70011568:	00000000 	andeq	r0, r0, r0

7001156c <inicio>:
7001156c:	00000001 	andeq	r0, r0, r1

70011570 <true_sp>:
70011570:	00000000 	andeq	r0, r0, r0

70011574 <tcb_tareas>:
	...

700115b4 <task_ticks>:
700115b4:	00000005 	andeq	r0, r0, r5
700115b8:	00000008 	andeq	r0, r0, r8
700115bc:	0000000c 	andeq	r0, r0, ip
700115c0:	00000005 	andeq	r0, r0, r5

700115c4 <tareas_fun>:
700115c4:	70011378 	andvc	r1, r1, r8, ror r3
700115c8:	70011388 	andvc	r1, r1, r8, lsl #7
700115cc:	70011410 	andvc	r1, r1, r0, lsl r4
700115d0:	700114a8 	andvc	r1, r1, r8, lsr #9

700115d4 <task_stack_IRQ>:
700115d4:	70020700 	andvc	r0, r2, r0, lsl #14
700115d8:	70020800 	andvc	r0, r2, r0, lsl #16
700115dc:	70020900 	andvc	r0, r2, r0, lsl #18
700115e0:	70020a00 	andvc	r0, r2, r0, lsl #20

700115e4 <task_stack_SVC>:
700115e4:	70020b00 	andvc	r0, r2, r0, lsl #22
700115e8:	70020c00 	andvc	r0, r2, r0, lsl #24
700115ec:	70020d00 	andvc	r0, r2, r0, lsl #26
700115f0:	70020e00 	andvc	r0, r2, r0, lsl #28

Disassembly of section .debug_info:

00000000 <.debug_info>:
       0:	0000022f 	andeq	r0, r0, pc, lsr #4
       4:	04010005 	streq	r0, [r1], #-5
       8:	00000000 	andeq	r0, r0, r0
       c:	00008d0a 	andeq	r8, r0, sl, lsl #26
      10:	01ac0c00 			@ <UNDEFINED> instruction: 0x01ac0c00
      14:	00320000 	eorseq	r0, r2, r0
      18:	000c0000 	andeq	r0, ip, r0
	...
      24:	040b0000 	streq	r0, [fp], #-0
      28:	746e6905 	strbtvc	r6, [lr], #-2309	@ 0xfffff6fb
      2c:	07040100 	streq	r0, [r4, -r0, lsl #2]
      30:	0000015f 	andeq	r0, r0, pc, asr r1
      34:	49060101 	stmdbmi	r6, {r0, r8}
      38:	01000001 	tsteq	r0, r1
      3c:	000c0502 	andeq	r0, ip, r2, lsl #10
      40:	04010000 	streq	r0, [r1], #-0
      44:	00012005 	andeq	r2, r1, r5
      48:	05080100 	streq	r0, [r8, #-256]	@ 0xffffff00
      4c:	0000011b 	andeq	r0, r0, fp, lsl r1
      50:	00010a05 	andeq	r0, r1, r5, lsl #20
      54:	182e0200 	stmdane	lr!, {r9}
      58:	0000005c 	andeq	r0, r0, ip, asr r0
      5c:	47080101 	strmi	r0, [r8, -r1, lsl #2]
      60:	01000001 	tsteq	r0, r1
      64:	017b0702 	cmneq	fp, r2, lsl #14
      68:	72050000 	andvc	r0, r5, #0
      6c:	02000001 	andeq	r0, r0, #1
      70:	00761934 	rsbseq	r1, r6, r4, lsr r9
      74:	04010000 	streq	r0, [r1], #-0
      78:	00015a07 	andeq	r5, r1, r7, lsl #20
      7c:	07080100 	streq	r0, [r8, -r0, lsl #2]
      80:	00000155 	andeq	r0, r0, r5, asr r1
      84:	00005004 	andeq	r5, r0, r4
      88:	00009400 	andeq	r9, r0, r0, lsl #8
      8c:	002d0600 	eoreq	r0, sp, r0, lsl #12
      90:	00030000 	andeq	r0, r3, r0
      94:	00006a04 	andeq	r6, r0, r4, lsl #20
      98:	0000a400 	andeq	sl, r0, r0, lsl #8
      9c:	002d0600 	eoreq	r0, sp, r0, lsl #12
      a0:	00030000 	andeq	r0, r3, r0
      a4:	2203040c 	andcs	r0, r3, #12, 8	@ 0xc000000
      a8:	0000c201 	andeq	ip, r0, r1, lsl #4
      ac:	53520800 	cmppl	r2, #0, 16
      b0:	6a230052 	bvs	8c0200 <_STACK_SIZE+0x8c0100>
      b4:	08000000 	stmdaeq	r0, {}	@ <UNPREDICTABLE>
      b8:	00524345 	subseq	r4, r2, r5, asr #6
      bc:	00006a24 	andeq	r6, r0, r4, lsr #20
      c0:	000d0000 	andeq	r0, sp, r0
      c4:	12200310 	eorne	r0, r0, #16, 6	@ 0x40000000
      c8:	000001aa 	andeq	r0, r0, sl, lsr #3
      cc:	00524402 	subseq	r4, r2, r2, lsl #8
      d0:	006a0f21 	rsbeq	r0, sl, r1, lsr #30
      d4:	0e000000 	cdpeq	0, 0, cr0, cr0, cr0, {0}
      d8:	000000a4 	andeq	r0, r0, r4, lsr #1
      dc:	01290304 			@ <UNDEFINED> instruction: 0x01290304
      e0:	03260000 			@ <UNDEFINED> instruction: 0x03260000
      e4:	000001af 	andeq	r0, r0, pc, lsr #3
      e8:	52460208 	subpl	r0, r6, #8, 4	@ 0x80000000
      ec:	6a0f2700 	bvs	3c9cf4 <_STACK_SIZE+0x3c9bf4>
      f0:	18000000 	stmdane	r0, {}	@ <UNPREDICTABLE>
      f4:	00013303 	andeq	r3, r1, r3, lsl #6
      f8:	84032800 	strhi	r2, [r3], #-2048	@ 0xfffff800
      fc:	1c000000 	stcne	0, cr0, [r0], {-0}
     100:	52504c02 	subspl	r4, r0, #512	@ 0x200
     104:	6a0e2900 	bvs	38a50c <_STACK_SIZE+0x38a40c>
     108:	20000000 	andcs	r0, r0, r0
     10c:	00002003 	andeq	r2, r0, r3
     110:	6a0d2a00 	bvs	34a918 <_STACK_SIZE+0x34a818>
     114:	24000000 	strcs	r0, [r0], #-0
     118:	00002d03 	andeq	r2, r0, r3, lsl #26
     11c:	6a0d2b00 	bvs	34ad24 <_STACK_SIZE+0x34ac24>
     120:	28000000 	stmdacs	r0, {}	@ <UNPREDICTABLE>
     124:	52434c02 	subpl	r4, r3, #512	@ 0x200
     128:	6a0e2c00 	bvs	38b130 <_STACK_SIZE+0x38b030>
     12c:	2c000000 	stccs	0, cr0, [r0], {-0}
     130:	00524302 	subseq	r4, r2, r2, lsl #6
     134:	006a0f2d 	rsbeq	r0, sl, sp, lsr #30
     138:	03300000 	teqeq	r0, #0
     13c:	0000001b 	andeq	r0, r0, fp, lsl r0
     140:	006a0d2e 	rsbeq	r0, sl, lr, lsr #26
     144:	03340000 	teqeq	r4, #0
     148:	00000016 	andeq	r0, r0, r6, lsl r0
     14c:	006a0d2f 	rsbeq	r0, sl, pc, lsr #26
     150:	02380000 	eorseq	r0, r8, #0
     154:	00534952 	subseq	r4, r3, r2, asr r9
     158:	006a0e30 	rsbeq	r0, sl, r0, lsr lr
     15c:	023c0000 	eorseq	r0, ip, #0
     160:	0053494d 	subseq	r4, r3, sp, asr #18
     164:	006a0e31 	rsbeq	r0, sl, r1, lsr lr
     168:	02400000 	subeq	r0, r0, #0
     16c:	00524349 	subseq	r4, r2, r9, asr #6
     170:	006a0e32 	rsbeq	r0, sl, r2, lsr lr
     174:	03440000 	movteq	r0, #16384	@ 0x4000
     178:	0000016c 	andeq	r0, r0, ip, ror #2
     17c:	006a0c33 	rsbeq	r0, sl, r3, lsr ip
     180:	03480000 	movteq	r0, #32768	@ 0x8000
     184:	0000013d 	andeq	r0, r0, sp, lsr r1
     188:	01bf0334 			@ <UNDEFINED> instruction: 0x01bf0334
     18c:	094c0000 	stmdbeq	ip, {}^	@ <UNPREDICTABLE>
     190:	00000112 	andeq	r0, r0, r2, lsl r1
     194:	00940c35 	addseq	r0, r4, r5, lsr ip
     198:	0fe00000 	svceq	0x00e00000
     19c:	00002509 	andeq	r2, r0, r9, lsl #10
     1a0:	940d3600 	strls	r3, [sp], #-1536	@ 0xfffffa00
     1a4:	f0000000 			@ <UNDEFINED> instruction: 0xf0000000
     1a8:	c20f000f 	andgt	r0, pc, #15
     1ac:	04000000 	streq	r0, [r0], #-0
     1b0:	00000050 	andeq	r0, r0, r0, asr r0
     1b4:	000001bf 			@ <UNDEFINED> instruction: 0x000001bf
     1b8:	00002d06 	andeq	r2, r0, r6, lsl #26
     1bc:	04000f00 	streq	r0, [r0], #-3840	@ 0xfffff100
     1c0:	00000050 	andeq	r0, r0, r0, asr r0
     1c4:	000001d0 	ldrdeq	r0, [r0], -r0	@ <UNPREDICTABLE>
     1c8:	00002d10 	andeq	r2, r0, r0, lsl sp
     1cc:	000f9300 	andeq	r9, pc, r0, lsl #6
     1d0:	00018e05 	andeq	r8, r1, r5, lsl #28
     1d4:	03370300 	teqeq	r7, #0, 6
     1d8:	000001aa 	andeq	r0, r0, sl, lsr #3
     1dc:	00000011 	andeq	r0, r0, r1, lsl r0
     1e0:	11420300 	mrsne	r0, SPSR_svc
     1e4:	000001f2 	strdeq	r0, [r0], -r2
     1e8:	000001f2 	strdeq	r0, [r0], -r2
     1ec:	00005012 	andeq	r5, r0, r2, lsl r0
     1f0:	04130000 	ldreq	r0, [r3], #-0
     1f4:	000001d0 	ldrdeq	r0, [r0], -r0	@ <UNPREDICTABLE>
     1f8:	00007c07 	andeq	r7, r0, r7, lsl #24
     1fc:	060f0400 	streq	r0, [pc], -r0, lsl #8
     200:	0000fd07 	andeq	pc, r0, r7, lsl #26
     204:	0d260500 	cfstr32eq	mvfx0, [r6, #-0]
     208:	00019607 	andeq	r9, r1, r7, lsl #12
     20c:	0d410600 	stcleq	6, cr0, [r1, #-0]
     210:	0001a114 	andeq	sl, r1, r4, lsl r1
     214:	28070100 	stmdacs	r7, {r8}
     218:	70010ed8 	ldrdvc	r0, [r1], -r8
     21c:	00000030 	andeq	r0, r0, r0, lsr r0
     220:	1c159c01 	ldcne	12, cr9, [r5], {1}
     224:	01000007 	tsteq	r0, r7
     228:	01f20e0e 	mvnseq	r0, lr, lsl #28
     22c:	91020000 	mrsls	r0, (UNDEF: 2)
     230:	a5000074 	strge	r0, [r0, #-116]	@ 0xffffff8c
     234:	05000003 	streq	r0, [r0, #-3]
     238:	2d040100 	stfcss	f0, [r4, #-0]
     23c:	0f000001 	svceq	0x00000001
     240:	0000008d 	andeq	r0, r0, sp, lsl #1
     244:	0001eb0c 	andeq	lr, r1, ip, lsl #22
     248:	00003200 	andeq	r3, r0, r0, lsl #4
     24c:	00001f00 	andeq	r1, r0, r0, lsl #30
     250:	00000000 	andeq	r0, r0, r0
     254:	0000ca00 	andeq	ip, r0, r0, lsl #20
     258:	01dc0500 	bicseq	r0, ip, r0, lsl #10
     25c:	28020000 	stmdacs	r2, {}	@ <UNPREDICTABLE>
     260:	0000321b 	andeq	r3, r0, fp, lsl r2
     264:	02281000 	eoreq	r1, r8, #0
     268:	05040000 	streq	r0, [r4, #-0]
     26c:	00004900 	andeq	r4, r0, r0, lsl #18
     270:	02101100 	andseq	r1, r0, #0, 2
     274:	00490000 	subeq	r0, r9, r0
     278:	00000000 	andeq	r0, r0, r0
     27c:	2a050412 	bcs	1412cc <_STACK_SIZE+0x1411cc>
     280:	02000002 	andeq	r0, r0, #2
     284:	00261867 	eoreq	r1, r6, r7, ror #16
     288:	04130000 	ldreq	r0, [r3], #-0
     28c:	746e6905 	strbtvc	r6, [lr], #-2309	@ 0xfffff6fb
     290:	07040100 	streq	r0, [r4, -r0, lsl #2]
     294:	0000015f 	andeq	r0, r0, pc, asr r1
     298:	49060101 	stmdbmi	r6, {r0, r8}
     29c:	01000001 	tsteq	r0, r1
     2a0:	000c0502 	andeq	r0, ip, r2, lsl #10
     2a4:	04010000 	streq	r0, [r1], #-0
     2a8:	00012005 	andeq	r2, r1, r5
     2ac:	05080100 	streq	r0, [r8, #-256]	@ 0xffffff00
     2b0:	0000011b 	andeq	r0, r0, fp, lsl r1
     2b4:	00010a05 	andeq	r0, r1, r5, lsl #20
     2b8:	182e0300 	stmdane	lr!, {r8, r9}
     2bc:	0000008d 	andeq	r0, r0, sp, lsl #1
     2c0:	47080101 	strmi	r0, [r8, -r1, lsl #2]
     2c4:	05000001 	streq	r0, [r0, #-1]
     2c8:	0000023f 	andeq	r0, r0, pc, lsr r2
     2cc:	a0193103 	andsge	r3, r9, r3, lsl #2
     2d0:	01000000 	mrseq	r0, (UNDEF: 0)
     2d4:	017b0702 	cmneq	fp, r2, lsl #14
     2d8:	72050000 	andvc	r0, r5, #0
     2dc:	03000001 	movweq	r0, #1
     2e0:	00b31934 	adcseq	r1, r3, r4, lsr r9
     2e4:	04010000 	streq	r0, [r1], #-0
     2e8:	00015a07 	andeq	r5, r1, r7, lsl #20
     2ec:	07080100 	streq	r0, [r8, -r0, lsl #2]
     2f0:	00000155 	andeq	r0, r0, r5, asr r1
     2f4:	22040414 	andcs	r0, r4, #20, 8	@ 0x14000000
     2f8:	0000df01 	andeq	sp, r0, r1, lsl #30
     2fc:	53520a00 	cmppl	r2, #0, 20
     300:	a7230052 			@ <UNDEFINED> instruction: 0xa7230052
     304:	0a000000 	beq	30c <_STACK_SIZE+0x20c>
     308:	00524345 	subseq	r4, r2, r5, asr #6
     30c:	0000a724 	andeq	sl, r0, r4, lsr #14
     310:	00150000 	andseq	r0, r5, r0
     314:	12200410 	eorne	r0, r0, #16, 8	@ 0x10000000
     318:	000001c7 	andeq	r0, r0, r7, asr #3
     31c:	00524403 	subseq	r4, r2, r3, lsl #8
     320:	00a70f21 	adceq	r0, r7, r1, lsr #30
     324:	16000000 	strne	r0, [r0], -r0
     328:	000000c1 	andeq	r0, r0, r1, asr #1
     32c:	01290404 			@ <UNDEFINED> instruction: 0x01290404
     330:	03260000 			@ <UNDEFINED> instruction: 0x03260000
     334:	000001cc 	andeq	r0, r0, ip, asr #3
     338:	52460308 	subpl	r0, r6, #8, 6	@ 0x20000000
     33c:	a70f2700 	strge	r2, [pc, -r0, lsl #14]
     340:	18000000 	stmdane	r0, {}	@ <UNPREDICTABLE>
     344:	00013304 	andeq	r3, r1, r4, lsl #6
     348:	dc032800 	stcle	8, cr2, [r3], {-0}
     34c:	1c000001 	stcne	0, cr0, [r0], {1}
     350:	52504c03 	subspl	r4, r0, #768	@ 0x300
     354:	a70e2900 	strge	r2, [lr, -r0, lsl #18]
     358:	20000000 	andcs	r0, r0, r0
     35c:	00002004 	andeq	r2, r0, r4
     360:	a70d2a00 	strge	r2, [sp, -r0, lsl #20]
     364:	24000000 	strcs	r0, [r0], #-0
     368:	00002d04 	andeq	r2, r0, r4, lsl #26
     36c:	a70d2b00 	strge	r2, [sp, -r0, lsl #22]
     370:	28000000 	stmdacs	r0, {}	@ <UNPREDICTABLE>
     374:	52434c03 	subpl	r4, r3, #768	@ 0x300
     378:	a70e2c00 	strge	r2, [lr, -r0, lsl #24]
     37c:	2c000000 	stccs	0, cr0, [r0], {-0}
     380:	00524303 	subseq	r4, r2, r3, lsl #6
     384:	00a70f2d 	adceq	r0, r7, sp, lsr #30
     388:	04300000 	ldrteq	r0, [r0], #-0
     38c:	0000001b 	andeq	r0, r0, fp, lsl r0
     390:	00a70d2e 	adceq	r0, r7, lr, lsr #26
     394:	04340000 	ldrteq	r0, [r4], #-0
     398:	00000016 	andeq	r0, r0, r6, lsl r0
     39c:	00a70d2f 	adceq	r0, r7, pc, lsr #26
     3a0:	03380000 	teqeq	r8, #0
     3a4:	00534952 	subseq	r4, r3, r2, asr r9
     3a8:	00a70e30 	adceq	r0, r7, r0, lsr lr
     3ac:	033c0000 	teqeq	ip, #0
     3b0:	0053494d 	subseq	r4, r3, sp, asr #18
     3b4:	00a70e31 	adceq	r0, r7, r1, lsr lr
     3b8:	03400000 	movteq	r0, #0
     3bc:	00524349 	subseq	r4, r2, r9, asr #6
     3c0:	00a70e32 	adceq	r0, r7, r2, lsr lr
     3c4:	04440000 	strbeq	r0, [r4], #-0
     3c8:	0000016c 	andeq	r0, r0, ip, ror #2
     3cc:	00a70c33 	adceq	r0, r7, r3, lsr ip
     3d0:	04480000 	strbeq	r0, [r8], #-0
     3d4:	0000013d 	andeq	r0, r0, sp, lsr r1
     3d8:	01ec0334 	mvneq	r0, r4, lsr r3
     3dc:	0b4c0000 	bleq	13003e4 <_STACK_SIZE+0x13002e4>
     3e0:	00000112 	andeq	r0, r0, r2, lsl r1
     3e4:	01fd0c35 	mvnseq	r0, r5, lsr ip
     3e8:	0fe00000 	svceq	0x00e00000
     3ec:	0000250b 	andeq	r2, r0, fp, lsl #10
     3f0:	fd0d3600 	stc2	6, cr3, [sp, #-0]
     3f4:	f0000001 			@ <UNDEFINED> instruction: 0xf0000001
     3f8:	df17000f 	svcle	0x0017000f
     3fc:	06000000 	streq	r0, [r0], -r0
     400:	00000081 	andeq	r0, r0, r1, lsl #1
     404:	000001dc 	ldrdeq	r0, [r0], -ip
     408:	00005e07 	andeq	r5, r0, r7, lsl #28
     40c:	06000f00 	streq	r0, [r0], -r0, lsl #30
     410:	00000081 	andeq	r0, r0, r1, lsl #1
     414:	000001ec 	andeq	r0, r0, ip, ror #3
     418:	00005e07 	andeq	r5, r0, r7, lsl #28
     41c:	06000300 	streq	r0, [r0], -r0, lsl #6
     420:	00000081 	andeq	r0, r0, r1, lsl #1
     424:	000001fd 	strdeq	r0, [r0], -sp
     428:	00005e18 	andeq	r5, r0, r8, lsl lr
     42c:	000f9300 	andeq	r9, pc, r0, lsl #6
     430:	0000a706 	andeq	sl, r0, r6, lsl #14
     434:	00020d00 	andeq	r0, r2, r0, lsl #26
     438:	005e0700 	subseq	r0, lr, r0, lsl #14
     43c:	00030000 	andeq	r0, r3, r0
     440:	00018e05 	andeq	r8, r1, r5, lsl #28
     444:	03370400 	teqeq	r7, #0, 8
     448:	000001c7 	andeq	r0, r0, r7, asr #3
     44c:	00025402 	andeq	r5, r2, r2, lsl #8
     450:	2f1b0b00 	svccs	0x001b0b00
     454:	05000002 	streq	r0, [r0, #-2]
     458:	01120003 	tsteq	r2, r3
     45c:	023b0970 	eorseq	r0, fp, #112, 18	@ 0x1c0000
     460:	2a0c0000 	bcs	300468 <_STACK_SIZE+0x300368>
     464:	01000002 	tsteq	r0, r2
     468:	01500801 	cmpeq	r0, r1, lsl #16
     46c:	340c0000 	strcc	r0, [ip], #-0
     470:	19000002 	stmdbne	r0, {r1}
     474:	00000248 	andeq	r0, r0, r8, asr #4
     478:	570d4804 	strpl	r4, [sp, -r4, lsl #16]
     47c:	0d000002 	stceq	0, cr0, [r0, #-8]
     480:	0000022a 	andeq	r0, r0, sl, lsr #4
     484:	0000940d 	andeq	r9, r0, sp, lsl #8
     488:	641a0000 	ldrvs	r0, [sl], #-0
     48c:	01007669 	tsteq	r0, r9, ror #12
     490:	a733016b 	ldrge	r0, [r3, -fp, ror #2]!
     494:	ac000000 	stcge	0, cr0, [r0], {-0}
     498:	60700106 	rsbsvs	r0, r0, r6, lsl #2
     49c:	01000000 	mrseq	r0, (UNDEF: 0)
     4a0:	00029b9c 	muleq	r2, ip, fp
     4a4:	756e0e00 	strbvc	r0, [lr, #-3584]!	@ 0xfffff200
     4a8:	a740006d 	strbge	r0, [r0, -sp, rrx]
     4ac:	02000000 	andeq	r0, r0, #0
     4b0:	640e6c91 	strvs	r6, [lr], #-3217	@ 0xfffff36f
     4b4:	4e006e65 	cdpmi	14, 0, cr6, cr0, cr5, {3}
     4b8:	000000a7 	andeq	r0, r0, r7, lsr #1
     4bc:	1b689102 	blne	1a248cc <_STACK_SIZE+0x1a247cc>
     4c0:	6d01006b 	stcvs	0, cr0, [r1, #-428]	@ 0xfffffe54
     4c4:	00a70e01 	adceq	r0, r7, r1, lsl #28
     4c8:	91020000 	mrsls	r0, (UNDEF: 2)
     4cc:	211c0074 	tstcs	ip, r4, ror r0
     4d0:	01000002 	tsteq	r0, r2
     4d4:	01082f29 	tsteq	r8, r9, lsr #30
     4d8:	05a47001 	streq	r7, [r4, #1]!
     4dc:	9c010000 	stcls	0, cr0, [r1], {-0}
     4e0:	00000392 	muleq	r0, r2, r3
     4e4:	0006ac1d 	andeq	sl, r6, sp, lsl ip
     4e8:	42290100 	eormi	r0, r9, #0, 2
     4ec:	0000022a 	andeq	r0, r0, sl, lsr #4
     4f0:	1e709102 	expnes	f1, f2
     4f4:	00020502 	andeq	r0, r2, r2, lsl #10
     4f8:	920e2f00 	andls	r2, lr, #0, 30
     4fc:	02000003 	andeq	r0, r0, #3
     500:	70084891 	mulvc	r8, r1, r8
     504:	3000736f 	andcc	r7, r0, pc, ror #6
     508:	00005e12 	andeq	r5, r0, r2, lsl lr
     50c:	64910200 	ldrvs	r0, [r1], #512	@ 0x200
     510:	0001ca02 	andeq	ip, r1, r2, lsl #20
     514:	5e173000 	cdppl	0, 1, cr3, cr7, cr0, {0}
     518:	02000000 	andeq	r0, r0, #0
     51c:	0b026091 	bleq	98768 <_STACK_SIZE+0x98668>
     520:	30000002 	andcc	r0, r0, r2
     524:	00005e1e 	andeq	r5, r0, lr, lsl lr
     528:	5c910200 	lfmpl	f0, 4, [r1], {0}
     52c:	67656e08 	strbvs	r6, [r5, -r8, lsl #28]!
     530:	5e243000 	cdppl	0, 2, cr3, cr4, cr0, {0}
     534:	02000000 	andeq	r0, r0, #0
     538:	c4025891 	strgt	r5, [r2], #-2193	@ 0xfffff76f
     53c:	31000001 	tstcc	r0, r1
     540:	0003970b 	andeq	r9, r3, fp, lsl #14
     544:	40910200 	addsmi	r0, r1, r0, lsl #4
     548:	00021b02 	andeq	r1, r2, r2, lsl #22
     54c:	9c123100 	ldflss	f3, [r2], {-0}
     550:	03000003 	movweq	r0, #3
     554:	027fb091 	rsbseq	fp, pc, #145	@ 0x91
     558:	000001d0 	ldrdeq	r0, [r0], -r0	@ <UNPREDICTABLE>
     55c:	02341d31 	eorseq	r1, r4, #3136	@ 0xc40
     560:	91020000 	mrsls	r0, (UNDEF: 2)
     564:	02390257 	eorseq	r0, r9, #1879048197	@ 0x70000005
     568:	12320000 	eorsne	r0, r2, #0
     56c:	0000005e 	andeq	r0, r0, lr, asr r0
     570:	7fac9103 	svcvc	0x00ac9103
     574:	00023202 	andeq	r3, r2, r2, lsl #4
     578:	5e183200 	cdppl	2, 1, cr3, cr8, cr0, {0}
     57c:	02000000 	andeq	r0, r0, #0
     580:	69085091 	stmdbvs	r8, {r0, r4, r7, ip, lr}
     584:	5e123300 	cdppl	3, 1, cr3, cr2, cr0, {0}
     588:	02000000 	andeq	r0, r0, #0
     58c:	15024491 	strne	r4, [r2, #-1169]	@ 0xfffffb6f
     590:	34000002 	strcc	r0, [r0], #-2
     594:	00004b0d 	andeq	r4, r0, sp, lsl #22
     598:	a8910300 	ldmge	r1, {r8, r9}
     59c:	6469087f 	strbtvs	r0, [r9], #-2175	@ 0xfffff781
     5a0:	0e350078 	mrceq	0, 1, r0, cr5, cr8, {3}
     5a4:	000000a7 	andeq	r0, r0, r7, lsr #1
     5a8:	1f4c9102 	svcne	0x004c9102
     5ac:	000001d6 	ldrdeq	r0, [r0], -r6
     5b0:	d0015b01 	andle	r5, r1, r1, lsl #22
     5b4:	20700101 	rsbscs	r0, r0, r1, lsl #2
     5b8:	0000025c 	andeq	r0, r0, ip, asr r2
     5bc:	01010101 	tsteq	r1, r1, lsl #2
     5c0:	7001047c 	andvc	r0, r1, ip, ror r4
     5c4:	020d0900 	andeq	r0, sp, #0, 18
     5c8:	34090000 	strcc	r0, [r9], #-0
     5cc:	21000002 	tstcs	r0, r2
     5d0:	00000234 	andeq	r0, r0, r4, lsr r2
     5d4:	00005e07 	andeq	r5, r0, r7, lsl #28
     5d8:	00000f00 	andeq	r0, r0, r0, lsl #30
     5dc:	000002ed 	andeq	r0, r0, sp, ror #5
     5e0:	04010005 	streq	r0, [r1], #-5
     5e4:	00000302 	andeq	r0, r0, r2, lsl #6
     5e8:	00008d0d 	andeq	r8, r0, sp, lsl #26
     5ec:	03200c00 	nopeq	{0}	@ <UNPREDICTABLE>
     5f0:	00320000 	eorseq	r0, r2, r0
     5f4:	00390000 	eorseq	r0, r9, r0
     5f8:	00000000 	andeq	r0, r0, r0
     5fc:	035f0000 	cmpeq	pc, #0
     600:	040e0000 	streq	r0, [lr], #-0
     604:	746e6905 	strbtvc	r6, [lr], #-2309	@ 0xfffff6fb
     608:	07040200 	streq	r0, [r4, -r0, lsl #4]
     60c:	0000015f 	andeq	r0, r0, pc, asr r1
     610:	49060102 	stmdbmi	r6, {r1, r8}
     614:	02000001 	andeq	r0, r0, #1
     618:	000c0502 	andeq	r0, ip, r2, lsl #10
     61c:	04020000 	streq	r0, [r2], #-0
     620:	00012005 	andeq	r2, r1, r5
     624:	05080200 	streq	r0, [r8, #-512]	@ 0xfffffe00
     628:	0000011b 	andeq	r0, r0, fp, lsl r1
     62c:	00010a06 	andeq	r0, r1, r6, lsl #20
     630:	182e0200 	stmdane	lr!, {r9}
     634:	0000005c 	andeq	r0, r0, ip, asr r0
     638:	47080102 	strmi	r0, [r8, -r2, lsl #2]
     63c:	02000001 	andeq	r0, r0, #1
     640:	017b0702 	cmneq	fp, r2, lsl #14
     644:	72060000 	andvc	r0, r6, #0
     648:	02000001 	andeq	r0, r0, #1
     64c:	00761934 	rsbseq	r1, r6, r4, lsr r9
     650:	04020000 	streq	r0, [r2], #-0
     654:	00015a07 	andeq	r5, r1, r7, lsl #20
     658:	07080200 	streq	r0, [r8, -r0, lsl #4]
     65c:	00000155 	andeq	r0, r0, r5, asr r1
     660:	1c031c0f 	stcne	12, cr1, [r3], {15}
     664:	0000de12 	andeq	sp, r0, r2, lsl lr
     668:	02bf0500 	adcseq	r0, pc, #0, 10
     66c:	151e0000 	ldrne	r0, [lr, #-0]
     670:	0000006a 	andeq	r0, r0, sl, rrx
     674:	4d500700 	ldclmi	7, cr0, [r0, #-0]
     678:	6a1f0052 	bvs	7c07c8 <_STACK_SIZE+0x7c06c8>
     67c:	04000000 	streq	r0, [r0], #-0
     680:	52504207 	subspl	r4, r0, #1879048192	@ 0x70000000
     684:	006a2000 	rsbeq	r2, sl, r0
     688:	07080000 	streq	r0, [r8, -r0]
     68c:	00524149 	subseq	r4, r2, r9, asr #2
     690:	00006a21 	andeq	r6, r0, r1, lsr #20
     694:	d8050c00 	stmdale	r5, {sl, fp}
     698:	22000002 	andcs	r0, r0, #2
     69c:	00006a15 	andeq	r6, r0, r5, lsl sl
     6a0:	52071000 	andpl	r1, r7, #0
     6a4:	23005250 	movwcs	r5, #592	@ 0x250
     6a8:	0000006a 	andeq	r0, r0, sl, rrx
     6ac:	02920514 	addseq	r0, r2, #20, 10	@ 0x5000000
     6b0:	15240000 	strne	r0, [r4, #-0]!
     6b4:	0000006a 	andeq	r0, r0, sl, rrx
     6b8:	84080018 	strhi	r0, [r8], #-24	@ 0xffffffe8
     6bc:	06000000 	streq	r0, [r0], -r0
     6c0:	0000027e 	andeq	r0, r0, lr, ror r2
     6c4:	de072503 	cfsh32le	mvfx2, mvfx7, #3
     6c8:	10000000 	andne	r0, r0, r0
     6cc:	27031000 	strcs	r1, [r3, -r0]
     6d0:	00020812 	andeq	r0, r2, r2, lsl r8
     6d4:	02bf0500 	adcseq	r0, pc, #0, 10
     6d8:	12290000 	eorne	r0, r9, #0
     6dc:	0000006a 	andeq	r0, r0, sl, rrx
     6e0:	02780500 	rsbseq	r0, r8, #0, 10
     6e4:	122a0000 	eorne	r0, sl, #0
     6e8:	0000006a 	andeq	r0, r0, sl, rrx
     6ec:	01290504 			@ <UNDEFINED> instruction: 0x01290504
     6f0:	092b0000 	stmdbeq	fp!, {}	@ <UNPREDICTABLE>
     6f4:	0000020d 	andeq	r0, r0, sp, lsl #4
     6f8:	02ab0108 	adceq	r0, fp, #8, 2
     6fc:	122c0000 	eorne	r0, ip, #0
     700:	0000021d 	andeq	r0, r0, sp, lsl r2
     704:	33010100 	movwcc	r0, #4352	@ 0x1100
     708:	2d000001 	stccs	0, cr0, [r0, #-4]
     70c:	00022d09 	andeq	r2, r2, r9, lsl #26
     710:	01010c00 	tsteq	r1, r0, lsl #24
     714:	000002b5 			@ <UNDEFINED> instruction: 0x000002b5
     718:	021d122e 	andseq	r1, sp, #-536870910	@ 0xe0000002
     71c:	01800000 	orreq	r0, r0, r0
     720:	00013d01 	andeq	r3, r1, r1, lsl #26
     724:	2d092f00 	stccs	15, cr2, [r9, #-0]
     728:	8c000002 	stchi	0, cr0, [r0], {2}
     72c:	02eb0101 	rsceq	r0, fp, #1073741824	@ 0x40000000
     730:	12300000 	eorsne	r0, r0, #0
     734:	0000021d 	andeq	r0, r0, sp, lsl r2
     738:	02010200 	andeq	r0, r1, #0, 4
     73c:	31000003 	tstcc	r0, r3
     740:	00022d09 	andeq	r2, r2, r9, lsl #26
     744:	01020c00 	tsteq	r2, r0, lsl #24
     748:	000002e3 	andeq	r0, r0, r3, ror #5
     74c:	021d1232 	andseq	r1, sp, #536870915	@ 0x20000003
     750:	02800000 	addeq	r0, r0, #0
     754:	00030c01 	andeq	r0, r3, r1, lsl #24
     758:	2d093300 	stccs	3, cr3, [r9, #-0]
     75c:	8c000002 	stchi	0, cr0, [r0], {2}
     760:	02c40102 	sbceq	r0, r4, #-2147483648	@ 0x80000000
     764:	12340000 	eorsne	r0, r4, #0
     768:	0000021d 	andeq	r0, r0, sp, lsl r2
     76c:	16010300 	strne	r0, [r1], -r0, lsl #6
     770:	35000003 	strcc	r0, [r0, #-3]
     774:	00023d09 	andeq	r3, r2, r9, lsl #26
     778:	01030c00 	tsteq	r3, r0, lsl #24
     77c:	00000298 	muleq	r0, r8, r2
     780:	024d1236 	subeq	r1, sp, #1610612739	@ 0x60000003
     784:	04000000 	streq	r0, [r0], #-0
     788:	0002ce01 	andeq	ip, r2, r1, lsl #28
     78c:	5d093700 	stcpl	7, cr3, [r9, #-0]
     790:	60000002 	andvs	r0, r0, r2
     794:	02f30104 	rscseq	r0, r3, #4, 2
     798:	12380000 	eorsne	r0, r8, #0
     79c:	0000024d 	andeq	r0, r0, sp, asr #4
     7a0:	30010800 	andcc	r0, r1, r0, lsl #16
     7a4:	39000003 	stmdbcc	r0, {r0, r1}
     7a8:	00025d09 	andeq	r5, r2, r9, lsl #26
     7ac:	01086000 	mrseq	r6, (UNDEF: 8)
     7b0:	0000028c 	andeq	r0, r0, ip, lsl #5
     7b4:	026e123a 	rsbeq	r1, lr, #-1610612733	@ 0xa0000003
     7b8:	0c000000 	stceq	0, cr0, [r0], {-0}
     7bc:	00026401 	andeq	r6, r2, r1, lsl #8
     7c0:	7e093b00 	vmlavc.f64	d3, d9, d0
     7c4:	18000002 	stmdane	r0, {r1}
     7c8:	02fd010c 	rscseq	r0, sp, #12, 2
     7cc:	123c0000 	eorsne	r0, ip, #0
     7d0:	0000006a 	andeq	r0, r0, sl, rrx
     7d4:	6e010f00 	cdpvs	15, 0, cr0, cr1, cr0, {0}
     7d8:	3d000002 	stccc	0, cr0, [r0, #-8]
     7dc:	00028f09 	andeq	r8, r2, r9, lsl #30
     7e0:	000f0400 	andeq	r0, pc, r0, lsl #8
     7e4:	0000ef08 	andeq	lr, r0, r8, lsl #30
     7e8:	00500300 	subseq	r0, r0, r0, lsl #6
     7ec:	021d0000 	andseq	r0, sp, #0
     7f0:	2d040000 	stccs	0, cr0, [r4, #-0]
     7f4:	f4000000 	vst4.8	{d0-d3}, [r0], r0
     7f8:	006a0300 	rsbeq	r0, sl, r0, lsl #6
     7fc:	022d0000 	eoreq	r0, sp, #0
     800:	2d040000 	stccs	0, cr0, [r4, #-0]
     804:	02000000 	andeq	r0, r0, #0
     808:	00500300 	subseq	r0, r0, r0, lsl #6
     80c:	023d0000 	eorseq	r0, sp, #0
     810:	2d040000 	stccs	0, cr0, [r4, #-0]
     814:	70000000 	andvc	r0, r0, r0
     818:	00500300 	subseq	r0, r0, r0, lsl #6
     81c:	024d0000 	subeq	r0, sp, #0
     820:	2d040000 	stccs	0, cr0, [r4, #-0]
     824:	f0000000 			@ <UNDEFINED> instruction: 0xf0000000
     828:	006a0300 	rsbeq	r0, sl, r0, lsl #6
     82c:	025d0000 	subseq	r0, sp, #0
     830:	2d040000 	stccs	0, cr0, [r4, #-0]
     834:	17000000 	strne	r0, [r0, -r0]
     838:	00500300 	subseq	r0, r0, r0, lsl #6
     83c:	026e0000 	rsbeq	r0, lr, #0
     840:	2d090000 	stccs	0, cr0, [r9, #-0]
     844:	9c000000 	stcls	0, cr0, [r0], {-0}
     848:	6a030003 	bvs	c085c <_STACK_SIZE+0xc075c>
     84c:	7e000000 	cdpvc	0, 0, cr0, cr0, cr0, {0}
     850:	04000002 	streq	r0, [r0], #-2
     854:	0000002d 	andeq	r0, r0, sp, lsr #32
     858:	50030005 	andpl	r0, r3, r5
     85c:	8f000000 	svchi	0x00000000
     860:	09000002 	stmdbeq	r0, {r1}
     864:	0000002d 	andeq	r0, r0, sp, lsr #32
     868:	030002e4 	movweq	r0, #740	@ 0x2e4
     86c:	00000050 	andeq	r0, r0, r0, asr r0
     870:	0000029f 	muleq	r0, pc, r2	@ <UNPREDICTABLE>
     874:	00002d04 	andeq	r2, r0, r4, lsl #26
     878:	0600f800 	streq	pc, [r0], -r0, lsl #16
     87c:	000002a3 	andeq	r0, r0, r3, lsr #5
     880:	08073e03 	stmdaeq	r7, {r0, r1, r9, sl, fp, ip, sp}
     884:	11000002 	tstne	r0, r2
     888:	00000196 	muleq	r0, r6, r1
     88c:	0c2f0601 	stceq	6, cr0, [pc], #-4	@ 890 <_STACK_SIZE+0x790>
     890:	7c700107 	ldfvce	f0, [r0], #-28	@ 0xffffffe4
     894:	01000000 	mrseq	r0, (UNDEF: 0)
     898:	0002dc9c 	muleq	r2, ip, ip
     89c:	02dd0a00 	sbcseq	r0, sp, #0, 20
     8a0:	e1070000 	mrs	r0, (UNDEF: 7)
     8a4:	02000002 	andeq	r0, r0, #2
     8a8:	860a7491 			@ <UNDEFINED> instruction: 0x860a7491
     8ac:	08000002 	stmdaeq	r0, {r1}
     8b0:	000002eb 	andeq	r0, r0, fp, ror #5
     8b4:	00709102 	rsbseq	r9, r0, r2, lsl #2
     8b8:	0000e30b 	andeq	lr, r0, fp, lsl #6
     8bc:	02dc0c00 	sbcseq	r0, ip, #0, 24
     8c0:	9f0b0000 	svcls	0x000b0000
     8c4:	0c000002 	stceq	0, cr0, [r0], {2}
     8c8:	000002e6 	andeq	r0, r0, r6, ror #5
     8cc:	00002200 	andeq	r2, r0, r0, lsl #4
     8d0:	f1000200 			@ <UNDEFINED> instruction: 0xf1000200
     8d4:	04000003 	streq	r0, [r0], #-3
     8d8:	00040901 	andeq	r0, r4, r1, lsl #18
     8dc:	0100b400 	tsteq	r0, r0, lsl #8
     8e0:	01010870 	tsteq	r1, r0, ror r8
     8e4:	00033a70 	andeq	r3, r3, r0, ror sl
     8e8:	00003200 	andeq	r3, r0, r0, lsl #4
     8ec:	00035000 	andeq	r5, r3, r0
     8f0:	25800100 	strcs	r0, [r0, #256]	@ 0x100
     8f4:	05000003 	streq	r0, [r0, #-3]
     8f8:	05040100 	streq	r0, [r4, #-256]	@ 0xffffff00
     8fc:	0c000004 	stceq	0, cr0, [r0], {4}
     900:	0000008d 	andeq	r0, r0, sp, lsl #1
     904:	0004150c 	andeq	r1, r4, ip, lsl #10
     908:	00003200 	andeq	r3, r0, r0, lsl #4
     90c:	00004c00 	andeq	r4, r0, r0, lsl #24
     910:	00000000 	andeq	r0, r0, r0
     914:	00045f00 	andeq	r5, r4, r0, lsl #30
     918:	06010200 	streq	r0, [r1], -r0, lsl #4
     91c:	00000149 	andeq	r0, r0, r9, asr #2
     920:	0c050202 	sfmeq	f0, 4, [r5], {2}
     924:	02000000 	andeq	r0, r0, #0
     928:	01200504 			@ <UNDEFINED> instruction: 0x01200504
     92c:	08020000 	stmdaeq	r2, {}	@ <UNPREDICTABLE>
     930:	00011b05 	andeq	r1, r1, r5, lsl #22
     934:	010a0400 	tsteq	sl, r0, lsl #8
     938:	2e020000 	cdpcs	0, 0, cr0, cr2, cr0, {0}
     93c:	00004e18 	andeq	r4, r0, r8, lsl lr
     940:	08010200 	stmdaeq	r1, {r9}
     944:	00000147 	andeq	r0, r0, r7, asr #2
     948:	7b070202 	blvc	1c1158 <_STACK_SIZE+0x1c1058>
     94c:	04000001 	streq	r0, [r0], #-1
     950:	00000172 	andeq	r0, r0, r2, ror r1
     954:	68193402 	ldmdavs	r9, {r1, sl, ip, sp}
     958:	02000000 	andeq	r0, r0, #0
     95c:	015a0704 	cmpeq	sl, r4, lsl #14
     960:	08020000 	stmdaeq	r2, {}	@ <UNPREDICTABLE>
     964:	00015507 	andeq	r5, r1, r7, lsl #10
     968:	05040d00 	streq	r0, [r4, #-3328]	@ 0xfffff300
     96c:	00746e69 	rsbseq	r6, r4, r9, ror #28
     970:	5f070402 	svcpl	0x00070402
     974:	08000001 	stmdaeq	r0, {r0}
     978:	121c031c 	andsne	r0, ip, #28, 6	@ 0x70000000
     97c:	000000e9 	andeq	r0, r0, r9, ror #1
     980:	0002bf01 	andeq	fp, r2, r1, lsl #30
     984:	151e0300 	ldrne	r0, [lr, #-768]	@ 0xfffffd00
     988:	0000005c 	andeq	r0, r0, ip, asr r0
     98c:	4d500300 	ldclmi	3, cr0, [r0, #-0]
     990:	1f030052 	svcne	0x00030052
     994:	00005c15 	andeq	r5, r0, r5, lsl ip
     998:	42030400 	andmi	r0, r3, #0, 8
     99c:	03005250 	movweq	r5, #592	@ 0x250
     9a0:	005c1520 	subseq	r1, ip, r0, lsr #10
     9a4:	03080000 	movweq	r0, #32768	@ 0x8000
     9a8:	00524149 	subseq	r4, r2, r9, asr #2
     9ac:	5c152103 	ldfpls	f2, [r5], {3}
     9b0:	0c000000 	stceq	0, cr0, [r0], {-0}
     9b4:	0002d801 	andeq	sp, r2, r1, lsl #16
     9b8:	15220300 	strne	r0, [r2, #-768]!	@ 0xfffffd00
     9bc:	0000005c 	andeq	r0, r0, ip, asr r0
     9c0:	50520310 	subspl	r0, r2, r0, lsl r3
     9c4:	23030052 	movwcs	r0, #12370	@ 0x3052
     9c8:	00005c15 	andeq	r5, r0, r5, lsl ip
     9cc:	92011400 	andls	r1, r1, #0, 8
     9d0:	03000002 	movweq	r0, #2
     9d4:	005c1524 	subseq	r1, ip, r4, lsr #10
     9d8:	00180000 	andseq	r0, r8, r0
     9dc:	00008409 	andeq	r8, r0, r9, lsl #8
     9e0:	027e0400 	rsbseq	r0, lr, #0, 8
     9e4:	25030000 	strcs	r0, [r3, #-0]
     9e8:	0000e907 	andeq	lr, r0, r7, lsl #18
     9ec:	10000e00 	andne	r0, r0, r0, lsl #28
     9f0:	16120e04 	ldrne	r0, [r2], -r4, lsl #28
     9f4:	01000002 	tsteq	r0, r2
     9f8:	00000382 	andeq	r0, r0, r2, lsl #7
     9fc:	5c0c0f04 	stcpl	15, cr0, [ip], {4}
     a00:	00000000 	andeq	r0, r0, r0
     a04:	0003c901 	andeq	ip, r3, r1, lsl #18
     a08:	0c100400 	cfldrseq	mvf0, [r0], {-0}
     a0c:	0000005c 	andeq	r0, r0, ip, asr r0
     a10:	04430104 	strbeq	r0, [r3], #-260	@ 0xfffffefc
     a14:	11040000 	mrsne	r0, (UNDEF: 4)
     a18:	00005c0c 	andeq	r5, r0, ip, lsl #24
     a1c:	88010800 	stmdahi	r1, {fp}
     a20:	04000004 	streq	r0, [r0], #-4
     a24:	005c0c12 	subseq	r0, ip, r2, lsl ip
     a28:	010c0000 	mrseq	r0, (UNDEF: 12)
     a2c:	000003b7 			@ <UNDEFINED> instruction: 0x000003b7
     a30:	5c0c1304 	stcpl	3, cr1, [ip], {4}
     a34:	10000000 	andne	r0, r0, r0
     a38:	00045801 	andeq	r5, r4, r1, lsl #16
     a3c:	0c140400 	cfldrseq	mvf0, [r4], {-0}
     a40:	0000005c 	andeq	r0, r0, ip, asr r0
     a44:	046e0114 	strbteq	r0, [lr], #-276	@ 0xfffffeec
     a48:	15040000 	strne	r0, [r4, #-0]
     a4c:	00005c0c 	andeq	r5, r0, ip, lsl #24
     a50:	29011800 	stmdbcs	r1, {fp, ip}
     a54:	04000001 	streq	r0, [r0], #-1
     a58:	021b0316 	andseq	r0, fp, #1476395008	@ 0x58000000
     a5c:	011c0000 	tsteq	ip, r0
     a60:	000003f7 	strdeq	r0, [r0], -r7
     a64:	5c0c1704 	stcpl	7, cr1, [ip], {4}
     a68:	20000000 	andcs	r0, r0, r0
     a6c:	00046201 	andeq	r6, r4, r1, lsl #4
     a70:	0c180400 	cfldrseq	mvf0, [r8], {-0}
     a74:	0000005c 	andeq	r0, r0, ip, asr r0
     a78:	038d0124 	orreq	r0, sp, #36, 2
     a7c:	19040000 	stmdbne	r4, {}	@ <UNPREDICTABLE>
     a80:	00005c0c 	andeq	r5, r0, ip, lsl #24
     a84:	ea012800 	b	4aa8c <_STACK_SIZE+0x4a98c>
     a88:	04000003 	streq	r0, [r0], #-3
     a8c:	005c0c1a 	subseq	r0, ip, sl, lsl ip
     a90:	012c0000 			@ <UNDEFINED> instruction: 0x012c0000
     a94:	00000402 	andeq	r0, r0, r2, lsl #8
     a98:	5c0c1b04 			@ <UNDEFINED> instruction: 0x5c0c1b04
     a9c:	30000000 	andcc	r0, r0, r0
     aa0:	00036f01 	andeq	r6, r3, r1, lsl #30
     aa4:	0c1c0400 	cfldrseq	mvf0, [ip], {-0}
     aa8:	0000005c 	andeq	r0, r0, ip, asr r0
     aac:	047b0134 	ldrbteq	r0, [fp], #-308	@ 0xfffffecc
     ab0:	1d040000 	stcne	0, cr0, [r4, #-0]
     ab4:	00005c0c 	andeq	r5, r0, ip, lsl #24
     ab8:	33013800 	movwcc	r3, #6144	@ 0x1800
     abc:	04000001 	streq	r0, [r0], #-1
     ac0:	022b031e 	eoreq	r0, fp, #2013265920	@ 0x78000000
     ac4:	053c0000 	ldreq	r0, [ip, #-0]!
     ac8:	00000432 	andeq	r0, r0, r2, lsr r4
     acc:	005c0c1f 	subseq	r0, ip, pc, lsl ip
     ad0:	0f000000 	svceq	0x00000000
     ad4:	00044e05 	andeq	r4, r4, r5, lsl #28
     ad8:	5c0c2000 	stcpl	0, cr2, [ip], {-0}
     adc:	04000000 	streq	r0, [r0], #-0
     ae0:	013d050f 	teqeq	sp, pc, lsl #10
     ae4:	03210000 			@ <UNDEFINED> instruction: 0x03210000
     ae8:	0000023c 	andeq	r0, r0, ip, lsr r2
     aec:	12050f08 	andne	r0, r5, #8, 30
     af0:	22000001 	andcs	r0, r0, #1
     af4:	00024c0c 	andeq	r4, r2, ip, lsl #24
     af8:	050fe000 	streq	lr, [pc, #-0]	@ b00 <_STACK_SIZE+0xa00>
     afc:	00000025 	andeq	r0, r0, r5, lsr #32
     b00:	024c0d23 	subeq	r0, ip, #2240	@ 0x8c0
     b04:	0ff00000 	svceq	0x00f00000	@ IMB
     b08:	00fa0900 	rscseq	r0, sl, r0, lsl #18
     b0c:	42060000 	andmi	r0, r6, #0
     b10:	2b000000 	blcs	b18 <_STACK_SIZE+0xa18>
     b14:	07000002 	streq	r0, [r0, -r2]
     b18:	0000007d 	andeq	r0, r0, sp, ror r0
     b1c:	42060003 	andmi	r0, r6, #3
     b20:	3c000000 	stccc	0, cr0, [r0], {-0}
     b24:	0f000002 	svceq	0x00000002
     b28:	0000007d 	andeq	r0, r0, sp, ror r0
     b2c:	06000ec3 	streq	r0, [r0], -r3, asr #29
     b30:	00000042 	andeq	r0, r0, r2, asr #32
     b34:	0000024c 	andeq	r0, r0, ip, asr #4
     b38:	00007d07 	andeq	r7, r0, r7, lsl #26
     b3c:	0600d700 	streq	sp, [r0], -r0, lsl #14
     b40:	0000005c 	andeq	r0, r0, ip, asr r0
     b44:	0000025c 	andeq	r0, r0, ip, asr r2
     b48:	00007d07 	andeq	r7, r0, r7, lsl #26
     b4c:	04000300 	streq	r0, [r0], #-768	@ 0xfffffd00
     b50:	0000040c 	andeq	r0, r0, ip, lsl #8
     b54:	16032404 	strne	r2, [r3], -r4, lsl #8
     b58:	0a000002 	beq	b68 <_STACK_SIZE+0xa68>
     b5c:	0000005c 	andeq	r0, r0, ip, asr r0
     b60:	0a054008 	beq	150b88 <_STACK_SIZE+0x150a88>
     b64:	0002a909 	andeq	sl, r2, r9, lsl #18
     b68:	70730300 	rsbsvc	r0, r3, r0, lsl #6
     b6c:	0e0b0500 	cfsh32eq	mvfx0, mvfx11, #0
     b70:	0000005c 	andeq	r0, r0, ip, asr r0
     b74:	03b20100 			@ <UNDEFINED> instruction: 0x03b20100
     b78:	0b050000 	bleq	140b80 <_STACK_SIZE+0x140a80>
     b7c:	00005c12 	andeq	r5, r0, r2, lsl ip
     b80:	3c010400 	cfstrscc	mvf0, [r1], {-0}
     b84:	05000004 	streq	r0, [r0, #-4]
     b88:	02a9180b 	adceq	r1, r9, #720896	@ 0xb0000
     b8c:	03080000 	movweq	r0, #32768	@ 0x8000
     b90:	0500726c 	streq	r7, [r0, #-620]	@ 0xfffffd94
     b94:	005c240b 	subseq	r2, ip, fp, lsl #8
     b98:	003c0000 	eorseq	r0, ip, r0
     b9c:	00005c06 	andeq	r5, r0, r6, lsl #24
     ba0:	0002b900 	andeq	fp, r2, r0, lsl #18
     ba4:	007d0700 	rsbseq	r0, sp, r0, lsl #14
     ba8:	000c0000 	andeq	r0, ip, r0
     bac:	0003a804 	andeq	sl, r3, r4, lsl #16
     bb0:	030c0500 	movweq	r0, #50432	@ 0xc500
     bb4:	0000026d 	andeq	r0, r0, sp, ror #4
     bb8:	0003c110 	andeq	ip, r3, r0, lsl r1
     bbc:	12090100 	andne	r0, r9, #0, 2
     bc0:	00000268 	andeq	r0, r0, r8, ror #4
     bc4:	0003d511 	andeq	sp, r3, r1, lsl r5
     bc8:	0b0e0500 	bleq	381fd0 <_STACK_SIZE+0x381ed0>
     bcc:	00000268 	andeq	r0, r0, r8, ror #4
     bd0:	00035c12 	andeq	r5, r3, r2, lsl ip
     bd4:	0b0e0100 	bleq	380fdc <_STACK_SIZE+0x380edc>
     bd8:	00000268 	andeq	r0, r0, r8, ror #4
     bdc:	700112bc 			@ <UNDEFINED> instruction: 0x700112bc
     be0:	000000bc 	strheq	r0, [r0], -ip
     be4:	03239c01 			@ <UNDEFINED> instruction: 0x03239c01
     be8:	79130000 	ldmdbvc	r3, {}	@ <UNPREDICTABLE>
     bec:	01000003 	tsteq	r0, r3
     bf0:	0323290e 			@ <UNDEFINED> instruction: 0x0323290e
     bf4:	91020000 	mrsls	r0, (UNDEF: 2)
     bf8:	03e10b6c 	mvneq	r0, #108, 22	@ 0x1b000
     bfc:	0f100000 	svceq	0x00100000
     c00:	00000268 	andeq	r0, r0, r8, ror #4
     c04:	0b749102 	bleq	1d25014 <_STACK_SIZE+0x1d24f14>
     c08:	00000398 	muleq	r0, r8, r3
     c0c:	005c0e11 	subseq	r0, ip, r1, lsl lr
     c10:	91020000 	mrsls	r0, (UNDEF: 2)
     c14:	b90a0070 	stmdblt	sl, {r4, r5, r6}
     c18:	00000002 	andeq	r0, r0, r2
     c1c:	00000121 	andeq	r0, r0, r1, lsr #2
     c20:	04010005 	streq	r0, [r1], #-5
     c24:	00000524 	andeq	r0, r0, r4, lsr #10
     c28:	00008d04 	andeq	r8, r0, r4, lsl #26
     c2c:	04b00c00 	ldrteq	r0, [r0], #3072	@ 0xc00
     c30:	00320000 	eorseq	r0, r2, r0
     c34:	0f080000 	svceq	0x00080000
     c38:	00b47001 	adcseq	r7, r4, r1
     c3c:	05530000 	ldrbeq	r0, [r3, #-0]
     c40:	01010000 	mrseq	r0, (UNDEF: 1)
     c44:	00014906 	andeq	r4, r1, r6, lsl #18
     c48:	05020100 	streq	r0, [r2, #-256]	@ 0xffffff00
     c4c:	0000000c 	andeq	r0, r0, ip
     c50:	20050401 	andcs	r0, r5, r1, lsl #8
     c54:	01000001 	tsteq	r0, r1
     c58:	011b0508 	tsteq	fp, r8, lsl #10
     c5c:	01010000 	mrseq	r0, (UNDEF: 1)
     c60:	00014708 	andeq	r4, r1, r8, lsl #14
     c64:	07020100 	streq	r0, [r2, -r0, lsl #2]
     c68:	0000017b 	andeq	r0, r0, fp, ror r1
     c6c:	00017205 	andeq	r7, r1, r5, lsl #4
     c70:	19340200 	ldmdbne	r4!, {r9}
     c74:	0000005c 	andeq	r0, r0, ip, asr r0
     c78:	5a070401 	bpl	1c1c84 <_STACK_SIZE+0x1c1b84>
     c7c:	01000001 	tsteq	r0, r1
     c80:	01550708 	cmpeq	r5, r8, lsl #14
     c84:	04060000 	streq	r0, [r6], #-0
     c88:	746e6905 	strbtvc	r6, [lr], #-2309	@ 0xfffff6fb
     c8c:	07040100 	streq	r0, [r4, -r0, lsl #2]
     c90:	0000015f 	andeq	r0, r0, pc, asr r1
     c94:	00022107 	andeq	r2, r2, r7, lsl #2
     c98:	0d0a0300 	stceq	3, cr0, [sl, #-0]
     c9c:	0000008b 	andeq	r0, r0, fp, lsl #1
     ca0:	00008b08 	andeq	r8, r0, r8, lsl #22
     ca4:	03000900 	movweq	r0, #2304	@ 0x900
     ca8:	00000097 	muleq	r0, r7, r0
     cac:	50080101 	andpl	r0, r8, r1, lsl #2
     cb0:	0a000001 	beq	cbc <_STACK_SIZE+0xbbc>
     cb4:	00000090 	muleq	r0, r0, r0
     cb8:	00049d0b 	andeq	r9, r4, fp, lsl #26
     cbc:	060a0100 	streq	r0, [sl], -r0, lsl #2
     cc0:	70010f08 	andvc	r0, r1, r8, lsl #30
     cc4:	000000b4 	strheq	r0, [r0], -r4
     cc8:	011f9c01 	tsteq	pc, r1, lsl #24
     ccc:	730c0000 	movwvc	r0, #49152	@ 0xc000
     cd0:	0a010070 	beq	40e98 <_STACK_SIZE+0x40d98>
     cd4:	00011f23 	andeq	r1, r1, r3, lsr #30
     cd8:	5c910200 	lfmpl	f0, 4, [r1], {0}
     cdc:	0063700d 	rsbeq	r7, r3, sp
     ce0:	1f0f0d01 	svcne	0x000f0d01
     ce4:	02000001 	andeq	r0, r0, #1
     ce8:	d8027491 	stmdale	r2, {r0, r4, r7, sl, ip, sp, lr}
     cec:	0e000004 	cdpeq	0, 0, cr0, cr0, cr4, {0}
     cf0:	0000500e 	andeq	r5, r0, lr
     cf4:	70910200 	addsvc	r0, r1, r0, lsl #4
     cf8:	0004cd02 	andeq	ip, r4, r2, lsl #26
     cfc:	500e0f00 	andpl	r0, lr, r0, lsl #30
     d00:	02000000 	andeq	r0, r0, #0
     d04:	5c0e6c91 	stcpl	12, cr6, [lr], {145}	@ 0x91
     d08:	2070010f 	rsbscs	r0, r0, pc, lsl #2
     d0c:	06000000 	streq	r0, [r0], -r0
     d10:	02000001 	andeq	r0, r0, #1
     d14:	00000495 	muleq	r0, r5, r4
     d18:	008b1916 	addeq	r1, fp, r6, lsl r9
     d1c:	91020000 	mrsls	r0, (UNDEF: 2)
     d20:	7c0f0064 	stcvc	0, cr0, [pc], {100}	@ 0x64
     d24:	2070010f 	rsbscs	r0, r0, pc, lsl #2
     d28:	02000000 	andeq	r0, r0, #0
     d2c:	000004d1 	ldrdeq	r0, [r0], -r1
     d30:	00501620 	subseq	r1, r0, r0, lsr #12
     d34:	91020000 	mrsls	r0, (UNDEF: 2)
     d38:	03000068 	movweq	r0, #104	@ 0x68
     d3c:	00000050 	andeq	r0, r0, r0, asr r0
     d40:	0002aa00 	andeq	sl, r2, r0, lsl #20
     d44:	01000500 	tsteq	r0, r0, lsl #10
     d48:	0005f204 	andeq	pc, r5, r4, lsl #4
     d4c:	008d0a00 	addeq	r0, sp, r0, lsl #20
     d50:	430c0000 	movwmi	r0, #49152	@ 0xc000
     d54:	32000005 	andcc	r0, r0, #5
     d58:	60000000 	andvs	r0, r0, r0
     d5c:	00000000 	andeq	r0, r0, r0
     d60:	1f000000 	svcne	0x00000000
     d64:	01000006 	tsteq	r0, r6
     d68:	01490601 	cmpeq	r9, r1, lsl #12
     d6c:	02010000 	andeq	r0, r1, #0
     d70:	00000c05 	andeq	r0, r0, r5, lsl #24
     d74:	05040100 	streq	r0, [r4, #-256]	@ 0xffffff00
     d78:	00000120 	andeq	r0, r0, r0, lsr #2
     d7c:	1b050801 	blne	142d88 <_STACK_SIZE+0x142c88>
     d80:	01000001 	tsteq	r0, r1
     d84:	01470801 	cmpeq	r7, r1, lsl #16
     d88:	02010000 	andeq	r0, r1, #0
     d8c:	00017b07 	andeq	r7, r1, r7, lsl #22
     d90:	01720b00 	cmneq	r2, r0, lsl #22
     d94:	34040000 	strcc	r0, [r4], #-0
     d98:	00005c19 	andeq	r5, r0, r9, lsl ip
     d9c:	07040100 	streq	r0, [r4, -r0, lsl #2]
     da0:	0000015a 	andeq	r0, r0, sl, asr r1
     da4:	55070801 	strpl	r0, [r7, #-2049]	@ 0xfffff7ff
     da8:	0c000001 	stceq	0, cr0, [r0], {1}
     dac:	6e690504 	cdpvs	5, 6, cr0, cr9, cr4, {0}
     db0:	04010074 	streq	r0, [r1], #-116	@ 0xffffff8c
     db4:	00015f07 	andeq	r5, r1, r7, lsl #30
     db8:	02100d00 	andseq	r0, r0, #0, 26
     dbc:	00af0903 	adceq	r0, pc, r3, lsl #18
     dc0:	5d070000 	stcpl	0, cr0, [r7, #-0]
     dc4:	04000006 	streq	r0, [r0], #-6
     dc8:	000000af 	andeq	r0, r0, pc, lsr #1
     dcc:	05de0700 	ldrbeq	r0, [lr, #1792]	@ 0x700
     dd0:	af050000 	svcge	0x00050000
     dd4:	04000000 	streq	r0, [r0], #-0
     dd8:	0005b407 	andeq	fp, r5, r7, lsl #8
     ddc:	00500600 	subseq	r0, r0, r0, lsl #12
     de0:	0e080000 	cdpeq	0, 0, cr0, cr8, cr0, {0}
     de4:	02006469 	andeq	r6, r0, #1761607680	@ 0x69000000
     de8:	00500f07 	subseq	r0, r0, r7, lsl #30
     dec:	000c0000 	andeq	r0, ip, r0
     df0:	00005008 	andeq	r5, r0, r8
     df4:	43540f00 	cmpmi	r4, #0, 30
     df8:	08020042 	stmdaeq	r2, {r1, r6}
     dfc:	00007803 	andeq	r7, r0, r3, lsl #16
     e00:	06640300 	strbteq	r0, [r4], -r0, lsl #6
     e04:	50080000 	andpl	r0, r8, r0
     e08:	03000000 	movweq	r0, #0
     e0c:	00000591 	muleq	r0, r1, r5
     e10:	00005009 	andeq	r5, r0, r9
     e14:	05f50300 	ldrbeq	r0, [r5, #768]!	@ 0x300
     e18:	500a0000 	andpl	r0, sl, r0
     e1c:	03000000 	movweq	r0, #0
     e20:	00000525 	andeq	r0, r0, r5, lsr #10
     e24:	0000500b 	andeq	r5, r0, fp
     e28:	05c20300 	strbeq	r0, [r2, #768]	@ 0x300
     e2c:	500d0000 	andpl	r0, sp, r0
     e30:	03000000 	movweq	r0, #0
     e34:	00000573 	andeq	r0, r0, r3, ror r5
     e38:	0000500e 	andeq	r5, r0, lr
     e3c:	06800300 	streq	r0, [r0], r0, lsl #6
     e40:	500f0000 	andpl	r0, pc, r0
     e44:	03000000 	movweq	r0, #0
     e48:	000004e8 	andeq	r0, r0, r8, ror #9
     e4c:	00005010 	andeq	r5, r0, r0, lsl r0
     e50:	05b40200 	ldreq	r0, [r4, #512]!	@ 0x200
     e54:	2c120000 	ldccs	0, cr0, [r2], {-0}
     e58:	00000050 	andeq	r0, r0, r0, asr r0
     e5c:	15640305 	strbne	r0, [r4, #-773]!	@ 0xfffffcfb
     e60:	51027001 	tstpl	r2, r1
     e64:	13000006 	movwne	r0, #6
     e68:	0000502c 	andeq	r5, r0, ip, lsr #32
     e6c:	68030500 	stmdavs	r3, {r8, sl}
     e70:	02700115 	rsbseq	r0, r0, #1073741829	@ 0x40000005
     e74:	00000506 	andeq	r0, r0, r6, lsl #10
     e78:	00502c14 	subseq	r2, r0, r4, lsl ip
     e7c:	03050000 	movweq	r0, #20480	@ 0x5000
     e80:	7001156c 	andvc	r1, r1, ip, ror #10
     e84:	0003c102 	andeq	ip, r3, r2, lsl #2
     e88:	af2d1500 	svcge	0x002d1500
     e8c:	05000000 	streq	r0, [r0, #-0]
     e90:	01157003 	tsteq	r5, r3
     e94:	00b40470 	adcseq	r0, r4, r0, ror r4
     e98:	01630000 	cmneq	r3, r0
     e9c:	71050000 	mrsvc	r0, (UNDEF: 5)
     ea0:	00000000 	andeq	r0, r0, r0
     ea4:	00056802 	andeq	r6, r5, r2, lsl #16
     ea8:	54271700 	strtpl	r1, [r7], #-1792	@ 0xfffff900
     eac:	05000001 	streq	r0, [r0, #-1]
     eb0:	01157403 	tsteq	r5, r3, lsl #8
     eb4:	00500470 	subseq	r0, r0, r0, ror r4
     eb8:	01830000 	orreq	r0, r3, r0
     ebc:	71050000 	mrsvc	r0, (UNDEF: 5)
     ec0:	00000000 	andeq	r0, r0, r0
     ec4:	0005af02 	andeq	sl, r5, r2, lsl #30
     ec8:	740a1a00 	strvc	r1, [sl], #-2560	@ 0xfffff600
     ecc:	05000001 	streq	r0, [r0, #-1]
     ed0:	0115b403 	tsteq	r5, r3, lsl #8
     ed4:	01a30470 			@ <UNDEFINED> instruction: 0x01a30470
     ed8:	01a30000 			@ <UNDEFINED> instruction: 0x01a30000
     edc:	71050000 	mrsvc	r0, (UNDEF: 5)
     ee0:	00000000 	andeq	r0, r0, r0
     ee4:	0001a808 	andeq	sl, r1, r8, lsl #16
     ee8:	1a021000 	bne	84ef0 <_STACK_SIZE+0x84df0>
     eec:	1d000005 	stcne	0, cr0, [r0, #-20]	@ 0xffffffec
     ef0:	00019407 	andeq	r9, r1, r7, lsl #8
     ef4:	c4030500 	strgt	r0, [r3], #-1280	@ 0xfffffb00
     ef8:	04700115 	ldrbteq	r0, [r0], #-277	@ 0xfffffeeb
     efc:	000000af 	andeq	r0, r0, pc, lsr #1
     f00:	000001c9 	andeq	r0, r0, r9, asr #3
     f04:	00007105 	andeq	r7, r0, r5, lsl #2
     f08:	37020000 	strcc	r0, [r2, -r0]
     f0c:	23000006 	movwcs	r0, #6
     f10:	0001ba0b 	andeq	fp, r1, fp, lsl #20
     f14:	d4030500 	strle	r0, [r3], #-1280	@ 0xfffffb00
     f18:	02700115 	rsbseq	r0, r0, #1073741829	@ 0x40000005
     f1c:	00000559 	andeq	r0, r0, r9, asr r5
     f20:	01ba0b29 			@ <UNDEFINED> instruction: 0x01ba0b29
     f24:	03050000 	movweq	r0, #20480	@ 0x5000
     f28:	700115e4 	andvc	r1, r1, r4, ror #11
     f2c:	0005ed06 	andeq	lr, r5, r6, lsl #26
     f30:	e5060500 	str	r0, [r6, #-1280]	@ 0xfffffb00
     f34:	04000005 	streq	r0, [r0], #-5
     f38:	0005ba06 	andeq	fp, r5, r6, lsl #20
     f3c:	46060300 	strmi	r0, [r6], -r0, lsl #6
     f40:	06000006 	streq	r0, [r0], -r6
     f44:	0003d511 	andeq	sp, r3, r1, lsl r5
     f48:	0b590100 	bleq	1641350 <_STACK_SIZE+0x1641250>
     f4c:	000000af 	andeq	r0, r0, pc, lsr #1
     f50:	70010880 	andvc	r0, r1, r0, lsl #17
     f54:	00000174 	andeq	r0, r0, r4, ror r1
     f58:	022d9c01 	eoreq	r9, sp, #256	@ 0x100
     f5c:	0d120000 	ldceq	0, cr0, [r2, #-0]
     f60:	01000005 	tsteq	r0, r5
     f64:	00500e5c 	subseq	r0, r0, ip, asr lr
     f68:	91020000 	mrsls	r0, (UNDEF: 2)
     f6c:	7c130074 	ldcvc	0, cr0, [r3], {116}	@ 0x74
     f70:	01000000 	mrseq	r0, (UNDEF: 0)
     f74:	0788064a 	streq	r0, [r8, sl, asr #12]
     f78:	00f87001 	rscseq	r7, r8, r1
     f7c:	9c010000 	stcls	0, cr0, [r1], {-0}
     f80:	0000025a 	andeq	r0, r0, sl, asr r2
     f84:	01079414 	tsteq	r7, r4, lsl r4
     f88:	0000dc70 	andeq	sp, r0, r0, ror ip
     f8c:	00690900 	rsbeq	r0, r9, r0, lsl #18
     f90:	0050134c 	subseq	r1, r0, ip, asr #6
     f94:	91020000 	mrsls	r0, (UNDEF: 2)
     f98:	15000074 	strne	r0, [r0, #-116]	@ 0xffffff8c
     f9c:	0000061f 	andeq	r0, r0, pc, lsl r6
     fa0:	bc063001 	stclt	0, cr3, [r6], {1}
     fa4:	c070010f 	rsbsgt	r0, r0, pc, lsl #2
     fa8:	01000000 	mrseq	r0, (UNDEF: 0)
     fac:	0002a89c 	muleq	r2, ip, r8
     fb0:	63741600 	cmnvs	r4, #0, 12
     fb4:	30010062 	andcc	r0, r1, r2, rrx
     fb8:	0002a823 	andeq	sl, r2, r3, lsr #16
     fbc:	6c910200 	lfmvs	f0, 4, [r1], {0}
     fc0:	00061317 	andeq	r1, r6, r7, lsl r3
     fc4:	2f300100 	svccs	0x00300100
     fc8:	000001a3 	andeq	r0, r0, r3, lsr #3
     fcc:	09689102 	stmdbeq	r8!, {r1, r8, ip, pc}^
     fd0:	09310069 	ldmdbeq	r1!, {r0, r3, r5, r6}
     fd4:	0000006a 	andeq	r0, r0, sl, rrx
     fd8:	09749102 	ldmdbeq	r4!, {r1, r8, ip, pc}^
     fdc:	32007073 	andcc	r7, r0, #115	@ 0x73
     fe0:	0000af0f 	andeq	sl, r0, pc, lsl #30
     fe4:	70910200 	addsvc	r0, r1, r0, lsl #4
     fe8:	00b40800 	adcseq	r0, r4, r0, lsl #16
     fec:	cb000000 	blgt	ff4 <_STACK_SIZE+0xef4>
     ff0:	05000000 	streq	r0, [r0, #-0]
     ff4:	70040100 	andvc	r0, r4, r0, lsl #2
     ff8:	04000007 	streq	r0, [r0], #-7
     ffc:	0000008d 	andeq	r0, r0, sp, lsl #1
    1000:	0006c60c 	andeq	ip, r6, ip, lsl #12
    1004:	00003200 	andeq	r3, r0, r0, lsl #4
    1008:	01107c00 	tsteq	r0, r0, lsl #24
    100c:	00005870 	andeq	r5, r0, r0, ror r8
    1010:	00078b00 	andeq	r8, r7, r0, lsl #22
    1014:	06010100 	streq	r0, [r1], -r0, lsl #2
    1018:	00000149 	andeq	r0, r0, r9, asr #2
    101c:	0c050201 	sfmeq	f0, 4, [r5], {1}
    1020:	01000000 	mrseq	r0, (UNDEF: 0)
    1024:	01200504 			@ <UNDEFINED> instruction: 0x01200504
    1028:	08010000 	stmdaeq	r1, {}	@ <UNPREDICTABLE>
    102c:	00011b05 	andeq	r1, r1, r5, lsl #22
    1030:	08010100 	stmdaeq	r1, {r8}
    1034:	00000147 	andeq	r0, r0, r7, asr #2
    1038:	7b070201 	blvc	1c1844 <_STACK_SIZE+0x1c1744>
    103c:	05000001 	streq	r0, [r0, #-1]
    1040:	00000172 	andeq	r0, r0, r2, ror r1
    1044:	5c193402 	cfldrspl	mvf3, [r9], {2}
    1048:	01000000 	mrseq	r0, (UNDEF: 0)
    104c:	015a0704 	cmpeq	sl, r4, lsl #14
    1050:	08010000 	stmdaeq	r1, {}	@ <UNPREDICTABLE>
    1054:	00015507 	andeq	r5, r1, r7, lsl #10
    1058:	05040600 	streq	r0, [r4, #-1536]	@ 0xfffffa00
    105c:	00746e69 	rsbseq	r6, r4, r9, ror #28
    1060:	5f070401 	svcpl	0x00070401
    1064:	02000001 	andeq	r0, r0, #1
    1068:	000006b3 			@ <UNDEFINED> instruction: 0x000006b3
    106c:	0110a80f 	tsteq	r0, pc, lsl #16
    1070:	00002c70 	andeq	r2, r0, r0, ror ip
    1074:	999c0100 	ldmibls	ip, {r8}
    1078:	03000000 	movweq	r0, #0
    107c:	220f006e 	andcs	r0, pc, #110	@ 0x6e
    1080:	00000050 	andeq	r0, r0, r0, asr r0
    1084:	00749102 	rsbseq	r9, r4, r2, lsl #2
    1088:	00069e02 	andeq	r9, r6, r2, lsl #28
    108c:	107c0400 	rsbsne	r0, ip, r0, lsl #8
    1090:	002c7001 	eoreq	r7, ip, r1
    1094:	9c010000 	stcls	0, cr0, [r1], {-0}
    1098:	000000bc 	strheq	r0, [r0], -ip
    109c:	72747303 	rsbsvc	r7, r4, #201326592	@ 0xc000000
    10a0:	bc270400 	cfstrslt	mvf0, [r7], #-0
    10a4:	02000000 	andeq	r0, r0, #0
    10a8:	07007491 			@ <UNDEFINED> instruction: 0x07007491
    10ac:	0000c904 	andeq	ip, r0, r4, lsl #18
    10b0:	08010100 	stmdaeq	r1, {r8}
    10b4:	00000150 	andeq	r0, r0, r0, asr r1
    10b8:	0000c208 	andeq	ip, r0, r8, lsl #4
    10bc:	01720000 	cmneq	r2, r0
    10c0:	00050000 	andeq	r0, r5, r0
    10c4:	07e80401 	strbeq	r0, [r8, r1, lsl #8]!
    10c8:	8d080000 	stchi	0, cr0, [r8, #-0]
    10cc:	0c000000 	stceq	0, cr0, [r0], {-0}
    10d0:	000006ed 	andeq	r0, r0, sp, ror #13
    10d4:	00000032 	andeq	r0, r0, r2, lsr r0
    10d8:	00000082 	andeq	r0, r0, r2, lsl #1
    10dc:	00000000 	andeq	r0, r0, r0
    10e0:	00000812 	andeq	r0, r0, r2, lsl r8
    10e4:	49060101 	stmdbmi	r6, {r0, r8}
    10e8:	01000001 	tsteq	r0, r1
    10ec:	000c0502 	andeq	r0, ip, r2, lsl #10
    10f0:	04010000 	streq	r0, [r1], #-0
    10f4:	00012005 	andeq	r2, r1, r5
    10f8:	05080100 	streq	r0, [r8, #-256]	@ 0xffffff00
    10fc:	0000011b 	andeq	r0, r0, fp, lsl r1
    1100:	47080101 	strmi	r0, [r8, -r1, lsl #2]
    1104:	01000001 	tsteq	r0, r1
    1108:	017b0702 	cmneq	fp, r2, lsl #14
    110c:	72090000 	andvc	r0, r9, #0
    1110:	03000001 	movweq	r0, #1
    1114:	005c1934 	subseq	r1, ip, r4, lsr r9
    1118:	04010000 	streq	r0, [r1], #-0
    111c:	00015a07 	andeq	r5, r1, r7, lsl #20
    1120:	07080100 	streq	r0, [r8, -r0, lsl #2]
    1124:	00000155 	andeq	r0, r0, r5, asr r1
    1128:	6905040a 	stmdbvs	r5, {r1, r3, sl}
    112c:	0100746e 	tsteq	r0, lr, ror #8
    1130:	015f0704 	cmpeq	pc, r4, lsl #14
    1134:	b3050000 	movwlt	r0, #20480	@ 0x5000
    1138:	0c000006 	stceq	0, cr0, [r0], {6}
    113c:	00000088 	andeq	r0, r0, r8, lsl #1
    1140:	00005006 	andeq	r5, r0, r6
    1144:	9e050000 	cdpls	0, 0, cr0, cr5, cr0, {0}
    1148:	0b000006 	bleq	1168 <_STACK_SIZE+0x1068>
    114c:	00000098 	muleq	r0, r8, r0
    1150:	00009806 	andeq	r9, r0, r6, lsl #16
    1154:	040b0000 	streq	r0, [fp], #-0
    1158:	000000a5 	andeq	r0, r0, r5, lsr #1
    115c:	50080101 	andpl	r0, r8, r1, lsl #2
    1160:	0c000001 	stceq	0, cr0, [r0], {1}
    1164:	0000009e 	muleq	r0, lr, r0
    1168:	0005ed03 	andeq	lr, r5, r3, lsl #26
    116c:	14a85300 	strtne	r5, [r8], #768	@ 0x300
    1170:	00bc7001 	adcseq	r7, ip, r1
    1174:	9c010000 	stcls	0, cr0, [r1], {-0}
    1178:	000000e7 	andeq	r0, r0, r7, ror #1
    117c:	0006de04 	andeq	sp, r6, r4, lsl #28
    1180:	500e5500 	andpl	r5, lr, r0, lsl #10
    1184:	02000000 	andeq	r0, r0, #0
    1188:	6e026c91 	mcrvs	12, 0, r6, cr2, cr1, {4}
    118c:	500e5600 	andpl	r5, lr, r0, lsl #12
    1190:	02000000 	andeq	r0, r0, #0
    1194:	e5047491 	str	r7, [r4, #-1169]	@ 0xfffffb6f
    1198:	57000006 	strpl	r0, [r0, -r6]
    119c:	0000500e 	andeq	r5, r0, lr
    11a0:	70910200 	addsvc	r0, r1, r0, lsl #4
    11a4:	05e50300 	strbeq	r0, [r5, #768]!	@ 0x300
    11a8:	102e0000 	eorne	r0, lr, r0
    11ac:	98700114 	ldmdals	r0!, {r2, r4, r8}^
    11b0:	01000000 	mrseq	r0, (UNDEF: 0)
    11b4:	0001089c 	muleq	r1, ip, r8
    11b8:	006e0200 	rsbeq	r0, lr, r0, lsl #4
    11bc:	00500e30 	subseq	r0, r0, r0, lsr lr
    11c0:	91020000 	mrsls	r0, (UNDEF: 2)
    11c4:	ba030074 	blt	c139c <_STACK_SIZE+0xc129c>
    11c8:	13000005 	movwne	r0, #5
    11cc:	70011388 	andvc	r1, r1, r8, lsl #7
    11d0:	00000088 	andeq	r0, r0, r8, lsl #1
    11d4:	01639c01 	cmneq	r3, r1, lsl #24
    11d8:	61020000 	mrsvs	r0, (UNDEF: 2)
    11dc:	500e1400 	andpl	r1, lr, r0, lsl #8
    11e0:	02000000 	andeq	r0, r0, #0
    11e4:	62027491 	andvs	r7, r2, #-1862270976	@ 0x91000000
    11e8:	50151400 	andspl	r1, r5, r0, lsl #8
    11ec:	02000000 	andeq	r0, r0, #0
    11f0:	b0077091 	mullt	r7, r1, r0
    11f4:	58700113 	ldmdapl	r0!, {r0, r1, r4, r8}^
    11f8:	02000000 	andeq	r0, r0, #0
    11fc:	0e180069 	cdpeq	0, 1, cr0, cr8, cr9, {3}
    1200:	0000006a 	andeq	r0, r0, sl, rrx
    1204:	076c9102 	strbeq	r9, [ip, -r2, lsl #2]!
    1208:	700113bc 			@ <UNDEFINED> instruction: 0x700113bc
    120c:	00000034 	andeq	r0, r0, r4, lsr r0
    1210:	0006d904 	andeq	sp, r6, r4, lsl #18
    1214:	50121c00 	andspl	r1, r2, r0, lsl #24
    1218:	02000000 	andeq	r0, r0, #0
    121c:	00006891 	muleq	r0, r1, r8
    1220:	06460d00 	strbeq	r0, [r6], -r0, lsl #26
    1224:	06010000 	streq	r0, [r1], -r0
    1228:	01137833 	tsteq	r3, r3, lsr r8
    122c:	00001070 	andeq	r1, r0, r0, ror r0
    1230:	009c0100 	addseq	r0, ip, r0, lsl #2
    1234:	00000210 	andeq	r0, r0, r0, lsl r2
    1238:	04010005 	streq	r0, [r1], #-5
    123c:	000008b2 			@ <UNDEFINED> instruction: 0x000008b2
    1240:	00008d07 	andeq	r8, r0, r7, lsl #26
    1244:	07000c00 	streq	r0, [r0, -r0, lsl #24]
    1248:	00320000 	eorseq	r0, r2, r0
    124c:	00aa0000 	adceq	r0, sl, r0
    1250:	00000000 	andeq	r0, r0, r0
    1254:	09760000 	ldmdbeq	r6!, {}^	@ <UNPREDICTABLE>
    1258:	04080000 	streq	r0, [r8], #-0
    125c:	746e6905 	strbtvc	r6, [lr], #-2309	@ 0xfffff6fb
    1260:	07040200 	streq	r0, [r4, -r0, lsl #4]
    1264:	0000015f 	andeq	r0, r0, pc, asr r1
    1268:	49060102 	stmdbmi	r6, {r1, r8}
    126c:	02000001 	andeq	r0, r0, #1
    1270:	000c0502 	andeq	r0, ip, r2, lsl #10
    1274:	04020000 	streq	r0, [r2], #-0
    1278:	00012005 	andeq	r2, r1, r5
    127c:	05080200 	streq	r0, [r8, #-512]	@ 0xfffffe00
    1280:	0000011b 	andeq	r0, r0, fp, lsl r1
    1284:	00010a05 	andeq	r0, r1, r5, lsl #20
    1288:	182e0200 	stmdane	lr!, {r9}
    128c:	0000005c 	andeq	r0, r0, ip, asr r0
    1290:	47080102 	strmi	r0, [r8, -r2, lsl #2]
    1294:	02000001 	andeq	r0, r0, #1
    1298:	017b0702 	cmneq	fp, r2, lsl #14
    129c:	72050000 	andvc	r0, r5, #0
    12a0:	02000001 	andeq	r0, r0, #1
    12a4:	00761934 	rsbseq	r1, r6, r4, lsr r9
    12a8:	04020000 	streq	r0, [r2], #-0
    12ac:	00015a07 	andeq	r5, r1, r7, lsl #20
    12b0:	07080200 	streq	r0, [r8, -r0, lsl #4]
    12b4:	00000155 	andeq	r0, r0, r5, asr r1
    12b8:	03100009 	tsteq	r0, #9
    12bc:	0190120e 	orrseq	r1, r0, lr, lsl #4
    12c0:	82010000 	andhi	r0, r1, #0
    12c4:	0f000003 	svceq	0x00000003
    12c8:	00006a0c 	andeq	r6, r0, ip, lsl #20
    12cc:	c9010000 	stmdbgt	r1, {}	@ <UNPREDICTABLE>
    12d0:	10000003 	andne	r0, r0, r3
    12d4:	00006a0c 	andeq	r6, r0, ip, lsl #20
    12d8:	43010400 	movwmi	r0, #5120	@ 0x1400
    12dc:	11000004 	tstne	r0, r4
    12e0:	00006a0c 	andeq	r6, r0, ip, lsl #20
    12e4:	88010800 	stmdahi	r1, {fp}
    12e8:	12000004 	andne	r0, r0, #4
    12ec:	00006a0c 	andeq	r6, r0, ip, lsl #20
    12f0:	b7010c00 	strlt	r0, [r1, -r0, lsl #24]
    12f4:	13000003 	movwne	r0, #3
    12f8:	00006a0c 	andeq	r6, r0, ip, lsl #20
    12fc:	58011000 	stmdapl	r1, {ip}
    1300:	14000004 	strne	r0, [r0], #-4
    1304:	00006a0c 	andeq	r6, r0, ip, lsl #20
    1308:	6e011400 	cfcpysvs	mvf1, mvf1
    130c:	15000004 	strne	r0, [r0, #-4]
    1310:	00006a0c 	andeq	r6, r0, ip, lsl #20
    1314:	29011800 	stmdbcs	r1, {fp, ip}
    1318:	16000001 	strne	r0, [r0], -r1
    131c:	00019503 	andeq	r9, r1, r3, lsl #10
    1320:	f7011c00 			@ <UNDEFINED> instruction: 0xf7011c00
    1324:	17000003 	strne	r0, [r0, -r3]
    1328:	00006a0c 	andeq	r6, r0, ip, lsl #20
    132c:	62012000 	andvs	r2, r1, #0
    1330:	18000004 	stmdane	r0, {r2}
    1334:	00006a0c 	andeq	r6, r0, ip, lsl #20
    1338:	8d012400 	cfstrshi	mvf2, [r1, #-0]
    133c:	19000003 	stmdbne	r0, {r0, r1}
    1340:	00006a0c 	andeq	r6, r0, ip, lsl #20
    1344:	ea012800 	b	4b34c <_STACK_SIZE+0x4b24c>
    1348:	1a000003 	bne	135c <_STACK_SIZE+0x125c>
    134c:	00006a0c 	andeq	r6, r0, ip, lsl #20
    1350:	02012c00 	andeq	r2, r1, #0, 24
    1354:	1b000004 	blne	136c <_STACK_SIZE+0x126c>
    1358:	00006a0c 	andeq	r6, r0, ip, lsl #20
    135c:	6f013000 	svcvs	0x00013000
    1360:	1c000003 	stcne	0, cr0, [r0], {3}
    1364:	00006a0c 	andeq	r6, r0, ip, lsl #20
    1368:	7b013400 	blvc	4e370 <_STACK_SIZE+0x4e270>
    136c:	1d000004 	stcne	0, cr0, [r0, #-16]
    1370:	00006a0c 	andeq	r6, r0, ip, lsl #20
    1374:	33013800 	movwcc	r3, #6144	@ 0x1800
    1378:	1e000001 	cdpne	0, 0, cr0, cr0, cr1, {0}
    137c:	0001a503 	andeq	sl, r1, r3, lsl #10
    1380:	32033c00 	andcc	r3, r3, #0, 24
    1384:	1f000004 	svcne	0x00000004
    1388:	00006a0c 	andeq	r6, r0, ip, lsl #20
    138c:	030f0000 	movweq	r0, #61440	@ 0xf000
    1390:	0000044e 	andeq	r0, r0, lr, asr #8
    1394:	006a0c20 	rsbeq	r0, sl, r0, lsr #24
    1398:	0f040000 	svceq	0x00040000
    139c:	00013d03 	andeq	r3, r1, r3, lsl #26
    13a0:	b6032100 	strlt	r2, [r3], -r0, lsl #2
    13a4:	08000001 	stmdaeq	r0, {r0}
    13a8:	0112030f 	tsteq	r2, pc, lsl #6
    13ac:	0c220000 	stceq	0, cr0, [r2], #-0
    13b0:	000001c6 	andeq	r0, r0, r6, asr #3
    13b4:	25030fe0 	strcs	r0, [r3, #-4064]	@ 0xfffff020
    13b8:	23000000 	movwcs	r0, #0
    13bc:	0001c60d 	andeq	ip, r1, sp, lsl #12
    13c0:	000ff000 	andeq	pc, pc, r0
    13c4:	0000840a 	andeq	r8, r0, sl, lsl #8
    13c8:	00500400 	subseq	r0, r0, r0, lsl #8
    13cc:	01a50000 			@ <UNDEFINED> instruction: 0x01a50000
    13d0:	2d060000 	stccs	0, cr0, [r6, #-0]
    13d4:	03000000 	movweq	r0, #0
    13d8:	00500400 	subseq	r0, r0, r0, lsl #8
    13dc:	01b60000 			@ <UNDEFINED> instruction: 0x01b60000
    13e0:	2d0b0000 	stccs	0, cr0, [fp, #-0]
    13e4:	c3000000 	movwgt	r0, #0
    13e8:	5004000e 	andpl	r0, r4, lr
    13ec:	c6000000 	strgt	r0, [r0], -r0
    13f0:	06000001 	streq	r0, [r0], -r1
    13f4:	0000002d 	andeq	r0, r0, sp, lsr #32
    13f8:	6a0400d7 	bvs	10175c <_STACK_SIZE+0x10165c>
    13fc:	d6000000 	strle	r0, [r0], -r0
    1400:	06000001 	streq	r0, [r0], -r1
    1404:	0000002d 	andeq	r0, r0, sp, lsr #32
    1408:	0c050003 	stceq	0, cr0, [r5], {3}
    140c:	03000004 	movweq	r0, #4
    1410:	01900324 	orrseq	r0, r0, r4, lsr #6
    1414:	fd0c0000 	stc2	0, cr0, [ip, #-0]
    1418:	01000000 	mrseq	r0, (UNDEF: 0)
    141c:	09f42f06 	ldmibeq	r4!, {r1, r2, r8, r9, sl, fp, sp}^
    1420:	007c7001 	rsbseq	r7, ip, r1
    1424:	9c010000 	stcls	0, cr0, [r1], {-0}
    1428:	00000208 	andeq	r0, r0, r8, lsl #4
    142c:	0007120d 	andeq	r1, r7, sp, lsl #4
    1430:	19070100 	stmdbne	r7, {r8}
    1434:	0000020e 	andeq	r0, r0, lr, lsl #4
    1438:	00749102 	rsbseq	r9, r4, r2, lsl #2
    143c:	01d6040e 	bicseq	r0, r6, lr, lsl #8
    1440:	080f0000 	stmdaeq	pc, {}	@ <UNPREDICTABLE>
    1444:	00000002 	andeq	r0, r0, r2
    1448:	000003c9 	andeq	r0, r0, r9, asr #7
    144c:	04010005 	streq	r0, [r1], #-5
    1450:	0000097c 	andeq	r0, r0, ip, ror r9
    1454:	00008d0f 	andeq	r8, r0, pc, lsl #26
    1458:	07660c00 	strbeq	r0, [r6, -r0, lsl #24]!
    145c:	00320000 	eorseq	r0, r2, r0
    1460:	00bd0000 	adcseq	r0, sp, r0
    1464:	00000000 	andeq	r0, r0, r0
    1468:	0a280000 	beq	a01470 <_STACK_SIZE+0xa01370>
    146c:	04100000 	ldreq	r0, [r0], #-0
    1470:	746e6905 	strbtvc	r6, [lr], #-2309	@ 0xfffff6fb
    1474:	07040200 	streq	r0, [r4, -r0, lsl #4]
    1478:	0000015f 	andeq	r0, r0, pc, asr r1
    147c:	49060102 	stmdbmi	r6, {r1, r8}
    1480:	02000001 	andeq	r0, r0, #1
    1484:	000c0502 	andeq	r0, ip, r2, lsl #10
    1488:	04020000 	streq	r0, [r2], #-0
    148c:	00012005 	andeq	r2, r1, r5
    1490:	05080200 	streq	r0, [r8, #-512]	@ 0xfffffe00
    1494:	0000011b 	andeq	r0, r0, fp, lsl r1
    1498:	00010a06 	andeq	r0, r1, r6, lsl #20
    149c:	182e0200 	stmdane	lr!, {r9}
    14a0:	0000005c 	andeq	r0, r0, ip, asr r0
    14a4:	47080102 	strmi	r0, [r8, -r2, lsl #2]
    14a8:	06000001 	streq	r0, [r0], -r1
    14ac:	0000023f 	andeq	r0, r0, pc, lsr r2
    14b0:	6f193102 	svcvs	0x00193102
    14b4:	02000000 	andeq	r0, r0, #0
    14b8:	017b0702 	cmneq	fp, r2, lsl #14
    14bc:	72060000 	andvc	r0, r6, #0
    14c0:	02000001 	andeq	r0, r0, #1
    14c4:	00821934 	addeq	r1, r2, r4, lsr r9
    14c8:	04020000 	streq	r0, [r2], #-0
    14cc:	00015a07 	andeq	r5, r1, r7, lsl #20
    14d0:	07080200 	streq	r0, [r8, -r0, lsl #4]
    14d4:	00000155 	andeq	r0, r0, r5, asr r1
    14d8:	22030411 	andcs	r0, r3, #285212672	@ 0x11000000
    14dc:	0000ae01 	andeq	sl, r0, r1, lsl #28
    14e0:	53520c00 	cmppl	r2, #0, 24
    14e4:	76230052 			@ <UNDEFINED> instruction: 0x76230052
    14e8:	0c000000 	stceq	0, cr0, [r0], {-0}
    14ec:	00524345 	subseq	r4, r2, r5, asr #6
    14f0:	00007624 	andeq	r7, r0, r4, lsr #12
    14f4:	00120000 	andseq	r0, r2, r0
    14f8:	12200310 	eorne	r0, r0, #16, 6	@ 0x40000000
    14fc:	00000196 	muleq	r0, r6, r1
    1500:	00524403 	subseq	r4, r2, r3, lsl #8
    1504:	00760f21 	rsbseq	r0, r6, r1, lsr #30
    1508:	13000000 	movwne	r0, #0
    150c:	00000090 	muleq	r0, r0, r0
    1510:	01290404 			@ <UNDEFINED> instruction: 0x01290404
    1514:	03260000 			@ <UNDEFINED> instruction: 0x03260000
    1518:	0000019b 	muleq	r0, fp, r1
    151c:	52460308 	subpl	r0, r6, #8, 6	@ 0x20000000
    1520:	760f2700 	strvc	r2, [pc], -r0, lsl #14
    1524:	18000000 	stmdane	r0, {}	@ <UNPREDICTABLE>
    1528:	00013304 	andeq	r3, r1, r4, lsl #6
    152c:	ab032800 	blge	cb534 <_STACK_SIZE+0xcb434>
    1530:	1c000001 	stcne	0, cr0, [r0], {1}
    1534:	52504c03 	subspl	r4, r0, #768	@ 0x300
    1538:	760e2900 	strvc	r2, [lr], -r0, lsl #18
    153c:	20000000 	andcs	r0, r0, r0
    1540:	00002004 	andeq	r2, r0, r4
    1544:	760d2a00 	strvc	r2, [sp], -r0, lsl #20
    1548:	24000000 	strcs	r0, [r0], #-0
    154c:	00002d04 	andeq	r2, r0, r4, lsl #26
    1550:	760d2b00 	strvc	r2, [sp], -r0, lsl #22
    1554:	28000000 	stmdacs	r0, {}	@ <UNPREDICTABLE>
    1558:	52434c03 	subpl	r4, r3, #768	@ 0x300
    155c:	760e2c00 	strvc	r2, [lr], -r0, lsl #24
    1560:	2c000000 	stccs	0, cr0, [r0], {-0}
    1564:	00524303 	subseq	r4, r2, r3, lsl #6
    1568:	00760f2d 	rsbseq	r0, r6, sp, lsr #30
    156c:	04300000 	ldrteq	r0, [r0], #-0
    1570:	0000001b 	andeq	r0, r0, fp, lsl r0
    1574:	00760d2e 	rsbseq	r0, r6, lr, lsr #26
    1578:	04340000 	ldrteq	r0, [r4], #-0
    157c:	00000016 	andeq	r0, r0, r6, lsl r0
    1580:	00760d2f 	rsbseq	r0, r6, pc, lsr #26
    1584:	03380000 	teqeq	r8, #0
    1588:	00534952 	subseq	r4, r3, r2, asr r9
    158c:	00760e30 	rsbseq	r0, r6, r0, lsr lr
    1590:	033c0000 	teqeq	ip, #0
    1594:	0053494d 	subseq	r4, r3, sp, asr #18
    1598:	00760e31 	rsbseq	r0, r6, r1, lsr lr
    159c:	03400000 	movteq	r0, #0
    15a0:	00524349 	subseq	r4, r2, r9, asr #6
    15a4:	00760e32 	rsbseq	r0, r6, r2, lsr lr
    15a8:	04440000 	strbeq	r0, [r4], #-0
    15ac:	0000016c 	andeq	r0, r0, ip, ror #2
    15b0:	00760c33 	rsbseq	r0, r6, r3, lsr ip
    15b4:	04480000 	strbeq	r0, [r8], #-0
    15b8:	0000013d 	andeq	r0, r0, sp, lsr r1
    15bc:	01bb0334 			@ <UNDEFINED> instruction: 0x01bb0334
    15c0:	0d4c0000 	stcleq	0, cr0, [ip, #-0]
    15c4:	00000112 	andeq	r0, r0, r2, lsl r1
    15c8:	01cc0c35 	biceq	r0, ip, r5, lsr ip
    15cc:	0fe00000 	svceq	0x00e00000
    15d0:	0000250d 	andeq	r2, r0, sp, lsl #10
    15d4:	cc0d3600 	stcgt	6, cr3, [sp], {-0}
    15d8:	f0000001 			@ <UNDEFINED> instruction: 0xf0000001
    15dc:	ae14000f 	cdpge	0, 1, cr0, cr4, cr15, {0}
    15e0:	07000000 	streq	r0, [r0, -r0]
    15e4:	00000050 	andeq	r0, r0, r0, asr r0
    15e8:	000001ab 	andeq	r0, r0, fp, lsr #3
    15ec:	00002d08 	andeq	r2, r0, r8, lsl #26
    15f0:	07000f00 	streq	r0, [r0, -r0, lsl #30]
    15f4:	00000050 	andeq	r0, r0, r0, asr r0
    15f8:	000001bb 			@ <UNDEFINED> instruction: 0x000001bb
    15fc:	00002d08 	andeq	r2, r0, r8, lsl #26
    1600:	07000300 	streq	r0, [r0, -r0, lsl #6]
    1604:	00000050 	andeq	r0, r0, r0, asr r0
    1608:	000001cc 	andeq	r0, r0, ip, asr #3
    160c:	00002d15 	andeq	r2, r0, r5, lsl sp
    1610:	000f9300 	andeq	r9, pc, r0, lsl #6
    1614:	00007607 	andeq	r7, r0, r7, lsl #12
    1618:	0001dc00 	andeq	sp, r1, r0, lsl #24
    161c:	002d0800 	eoreq	r0, sp, r0, lsl #16
    1620:	00030000 	andeq	r0, r3, r0
    1624:	00018e06 	andeq	r8, r1, r6, lsl #28
    1628:	03370300 	teqeq	r7, #0, 6
    162c:	00000196 	muleq	r0, r6, r1
    1630:	00024809 	andeq	r4, r2, r9, lsl #16
    1634:	0e587800 	cdpeq	8, 5, cr7, cr8, cr0, {0}
    1638:	00807001 	addeq	r7, r0, r1
    163c:	9c010000 	stcls	0, cr0, [r1], {-0}
    1640:	00000231 	andeq	r0, r0, r1, lsr r2
    1644:	78007301 	stmdavc	r0, {r0, r8, r9, ip, sp, lr}
    1648:	00023147 	andeq	r3, r2, r7, asr #2
    164c:	6c910200 	lfmvs	f0, 4, [r1], {0}
    1650:	6e656c01 	cdpvs	12, 6, cr6, cr5, cr1, {0}
    1654:	63537800 	cmpvs	r3, #0, 16
    1658:	02000000 	andeq	r0, r0, #0
    165c:	05056a91 	streq	r6, [r5, #-2705]	@ 0xfffff56f
    1660:	79000002 	stmdbvc	r0, {r1}
    1664:	00024210 	andeq	r4, r2, r0, lsl r2
    1668:	70910200 	addsvc	r0, r1, r0, lsl #4
    166c:	7a00690e 	bvc	1baac <_STACK_SIZE+0x1b9ac>
    1670:	00006310 	andeq	r6, r0, r0, lsl r3
    1674:	76910200 	ldrvc	r0, [r1], r0, lsl #4
    1678:	023d0a00 	eorseq	r0, sp, #0, 20
    167c:	01020000 	mrseq	r0, (UNDEF: 2)
    1680:	00015008 	andeq	r5, r1, r8
    1684:	02361600 	eorseq	r1, r6, #0, 12
    1688:	dc0a0000 	stcle	0, cr0, [sl], {-0}
    168c:	09000001 	stmdbeq	r0, {r0}
    1690:	00000722 	andeq	r0, r0, r2, lsr #14
    1694:	010df86f 	tsteq	sp, pc, ror #16	@ <UNPREDICTABLE>
    1698:	00006070 	andeq	r6, r0, r0, ror r0
    169c:	769c0100 	ldrvc	r0, [ip], r0, lsl #2
    16a0:	01000002 	tsteq	r0, r2
    16a4:	3d6f0073 	stclcc	0, cr0, [pc, #-460]!	@ 14e0 <_STACK_SIZE+0x13e0>
    16a8:	00000276 	andeq	r0, r0, r6, ror r2
    16ac:	056c9102 	strbeq	r9, [ip, #-258]!	@ 0xfffffefe
    16b0:	00000205 	andeq	r0, r0, r5, lsl #4
    16b4:	02421070 	subeq	r1, r2, #112	@ 0x70
    16b8:	91020000 	mrsls	r0, (UNDEF: 2)
    16bc:	360a0074 			@ <UNDEFINED> instruction: 0x360a0074
    16c0:	17000002 	strne	r0, [r0, -r2]
    16c4:	00000757 	andeq	r0, r0, r7, asr r7
    16c8:	50326801 	eorspl	r6, r2, r1, lsl #16
    16cc:	88000000 	stmdahi	r0, {}	@ <UNPREDICTABLE>
    16d0:	7070010d 	rsbsvc	r0, r0, sp, lsl #2
    16d4:	01000000 	mrseq	r0, (UNDEF: 0)
    16d8:	0002ae9c 	muleq	r2, ip, lr
    16dc:	00640100 	rsbeq	r0, r4, r0, lsl #2
    16e0:	02424668 	subeq	r4, r2, #104, 12	@ 0x6800000
    16e4:	91020000 	mrsls	r0, (UNDEF: 2)
    16e8:	00780e6c 	rsbseq	r0, r8, ip, ror #28
    16ec:	00500d69 	subseq	r0, r0, r9, ror #26
    16f0:	91020000 	mrsls	r0, (UNDEF: 2)
    16f4:	86090077 			@ <UNDEFINED> instruction: 0x86090077
    16f8:	63000007 	movwvs	r0, #7
    16fc:	70010d1c 	andvc	r0, r1, ip, lsl sp
    1700:	0000006c 	andeq	r0, r0, ip, rrx
    1704:	02db9c01 	sbcseq	r9, fp, #256	@ 0x100
    1708:	64010000 	strvs	r0, [r1], #-0
    170c:	42436300 	submi	r6, r3, #0, 6
    1710:	02000002 	andeq	r0, r0, #2
    1714:	78017491 	stmdavc	r1, {r0, r4, r7, sl, ip, sp, lr}
    1718:	504e6300 	subpl	r6, lr, r0, lsl #6
    171c:	02000000 	andeq	r0, r0, #0
    1720:	0b007391 	bleq	1e56c <_STACK_SIZE+0x1e46c>
    1724:	00000748 	andeq	r0, r0, r8, asr #14
    1728:	0050325a 	subseq	r3, r0, sl, asr r2
    172c:	0cd80000 	ldcleq	0, cr0, [r8], {0}
    1730:	00447001 	subeq	r7, r4, r1
    1734:	9c010000 	stcls	0, cr0, [r1], {-0}
    1738:	00000301 	andeq	r0, r0, r1, lsl #6
    173c:	5a006401 	bpl	1a748 <_STACK_SIZE+0x1a648>
    1740:	00024246 	andeq	r4, r2, r6, asr #4
    1744:	74910200 	ldrvc	r0, [r1], #512	@ 0x200
    1748:	077c1800 	ldrbeq	r1, [ip, -r0, lsl #16]!
    174c:	51010000 	mrspl	r0, (UNDEF: 1)
    1750:	010c8c2f 	tsteq	ip, pc, lsr #24
    1754:	00004c70 	andeq	r4, r0, r0, ror ip
    1758:	309c0100 	addscc	r0, ip, r0, lsl #2
    175c:	01000003 	tsteq	r0, r3
    1760:	43510064 	cmpmi	r1, #100	@ 0x64
    1764:	00000242 	andeq	r0, r0, r2, asr #4
    1768:	01749102 	cmneq	r4, r2, lsl #2
    176c:	4e510078 	mrcmi	0, 2, r0, cr1, cr8, {3}
    1770:	00000050 	andeq	r0, r0, r0, asr r0
    1774:	00739102 	rsbseq	r9, r3, r2, lsl #2
    1778:	0007610b 	andeq	r6, r7, fp, lsl #2
    177c:	362f4400 	strtcc	r4, [pc], -r0, lsl #8
    1780:	10000002 	andne	r0, r0, r2
    1784:	7c70010c 	ldfvce	f0, [r0], #-48	@ 0xffffffd0
    1788:	01000000 	mrseq	r0, (UNDEF: 0)
    178c:	0003569c 	muleq	r3, ip, r6
    1790:	00780100 	rsbseq	r0, r8, r0, lsl #2
    1794:	00263a44 	eoreq	r3, r6, r4, asr #20
    1798:	91020000 	mrsls	r0, (UNDEF: 2)
    179c:	520b0074 	andpl	r0, fp, #116	@ 0x74
    17a0:	36000007 	strcc	r0, [r0], -r7
    17a4:	0000262f 	andeq	r2, r0, pc, lsr #12
    17a8:	010b7c00 	tsteq	fp, r0, lsl #24
    17ac:	00009470 	andeq	r9, r0, r0, ror r4
    17b0:	7c9c0100 	ldfvcs	f0, [ip], {0}
    17b4:	01000003 	tsteq	r0, r3
    17b8:	3a360078 	bcc	d819a0 <_STACK_SIZE+0xd818a0>
    17bc:	00000236 	andeq	r0, r0, r6, lsr r2
    17c0:	00779102 	rsbseq	r9, r7, r2, lsl #2
    17c4:	00000019 	andeq	r0, r0, r9, lsl r0
    17c8:	330d0100 	movwcc	r0, #53504	@ 0xd100
    17cc:	00000242 	andeq	r0, r0, r2, asr #4
    17d0:	70010a70 	andvc	r0, r1, r0, ror sl
    17d4:	0000010c 	andeq	r0, r0, ip, lsl #2
    17d8:	2a1a9c01 	bcs	6a87e4 <_STACK_SIZE+0x6a86e4>
    17dc:	01000007 	tsteq	r0, r7
    17e0:	0050470d 	subseq	r4, r0, sp, lsl #14
    17e4:	91020000 	mrsls	r0, (UNDEF: 2)
    17e8:	0777056f 	ldrbeq	r0, [r7, -pc, ror #10]!
    17ec:	120e0000 	andne	r0, lr, #0
    17f0:	00000242 	andeq	r0, r0, r2, asr #4
    17f4:	05749102 	ldrbeq	r9, [r4, #-258]!	@ 0xfffffefe
    17f8:	00000733 	andeq	r0, r0, r3, lsr r7
    17fc:	0050110f 	subseq	r1, r0, pc, lsl #2
    1800:	91020000 	mrsls	r0, (UNDEF: 2)
    1804:	07190573 			@ <UNDEFINED> instruction: 0x07190573
    1808:	2b0f0000 	blcs	3c1810 <_STACK_SIZE+0x3c1710>
    180c:	00000050 	andeq	r0, r0, r0, asr r0
    1810:	00729102 	rsbseq	r9, r2, r2, lsl #2
    1814:	00003a00 	andeq	r3, r0, r0, lsl #20
    1818:	01000500 	tsteq	r0, r0, lsl #10
    181c:	000b2b04 	andeq	r2, fp, r4, lsl #22
    1820:	0c2c0100 	stfeqs	f0, [ip], #-0
    1824:	10d40000 	sbcsne	r0, r4, r0
    1828:	02947001 	addseq	r7, r4, #1
    182c:	00000790 	muleq	r0, r0, r7
    1830:	000007b7 			@ <UNDEFINED> instruction: 0x000007b7
    1834:	00000350 	andeq	r0, r0, r0, asr r3
    1838:	0e028001 	cdpeq	0, 0, cr8, cr2, cr1, {0}
    183c:	3c000008 	stccc	0, cr0, [r0], {8}
    1840:	700110d4 	ldrdvc	r1, [r1], -r4
    1844:	180201f4 	stmdane	r2, {r2, r4, r5, r6, r7, r8}
    1848:	3c000008 	stccc	0, cr0, [r0], {8}
    184c:	700111c8 	andvc	r1, r1, r8, asr #3
    1850:	38000320 	stmdacc	r0, {r5, r8, r9}
    1854:	05000000 	streq	r0, [r0, #-0]
    1858:	53040100 	movwpl	r0, #16640	@ 0x4100
    185c:	0100000b 	tsteq	r0, fp
    1860:	00000c93 	muleq	r0, r3, ip
    1864:	700111e8 	andvc	r1, r1, r8, ror #3
    1868:	00079004 	andeq	r9, r7, r4
    186c:	0007b700 	andeq	fp, r7, r0, lsl #14
    1870:	00035000 	andeq	r5, r3, r0
    1874:	02800100 	addeq	r0, r0, #0, 2
    1878:	00000829 	andeq	r0, r0, r9, lsr #16
    187c:	0111e83a 	tsteq	r1, sl, lsr r8
    1880:	37020470 	smlsdxcc	r2, r0, r4, r0
    1884:	3a000008 	bcc	18ac <_STACK_SIZE+0x17ac>
    1888:	700111e8 	andvc	r1, r1, r8, ror #3
    188c:	Address 0x188c is out of bounds.


Disassembly of section .debug_abbrev:

00000000 <.debug_abbrev>:
   0:	0b002401 	bleq	900c <_STACK_SIZE+0x8f0c>
   4:	030b3e0b 	movweq	r3, #48651	@ 0xbe0b
   8:	0200000e 	andeq	r0, r0, #14
   c:	0803000d 	stmdaeq	r3, {r0, r2, r3}
  10:	3b03213a 	blcc	c8500 <_STACK_SIZE+0xc8400>
  14:	490b390b 	stmdbmi	fp, {r0, r1, r3, r8, fp, ip, sp}
  18:	000b3813 	andeq	r3, fp, r3, lsl r8
  1c:	000d0300 	andeq	r0, sp, r0, lsl #6
  20:	213a0e03 	teqcs	sl, r3, lsl #28
  24:	390b3b03 	stmdbcc	fp, {r0, r1, r8, r9, fp, ip, sp}
  28:	3813490b 	ldmdacc	r3, {r0, r1, r3, r8, fp, lr}
  2c:	0400000b 	streq	r0, [r0], #-11
  30:	13490101 	movtne	r0, #37121	@ 0x9101
  34:	00001301 	andeq	r1, r0, r1, lsl #6
  38:	03001605 	movweq	r1, #1541	@ 0x605
  3c:	3b0b3a0e 	blcc	2ce87c <_STACK_SIZE+0x2ce77c>
  40:	490b390b 	stmdbmi	fp, {r0, r1, r3, r8, fp, ip, sp}
  44:	06000013 			@ <UNDEFINED> instruction: 0x06000013
  48:	13490021 	movtne	r0, #36897	@ 0x9021
  4c:	00000b2f 	andeq	r0, r0, pc, lsr #22
  50:	3f002e07 	svccc	0x00002e07
  54:	3a0e0319 	bcc	380cc0 <_STACK_SIZE+0x380bc0>
  58:	390b3b0b 	stmdbcc	fp, {r0, r1, r3, r8, r9, fp, ip, sp}
  5c:	3c19270b 	ldccc	7, cr2, [r9], {11}
  60:	08000019 	stmdaeq	r0, {r0, r3, r4}
  64:	0803000d 	stmdaeq	r3, {r0, r2, r3}
  68:	3b03213a 	blcc	c8558 <_STACK_SIZE+0xc8458>
  6c:	0e21390b 	vmuleq.f16	s6, s2, s22	@ <UNPREDICTABLE>
  70:	00001349 	andeq	r1, r0, r9, asr #6
  74:	03000d09 	movweq	r0, #3337	@ 0xd09
  78:	03213a0e 			@ <UNDEFINED> instruction: 0x03213a0e
  7c:	0b390b3b 	bleq	e42d70 <_STACK_SIZE+0xe42c70>
  80:	05381349 	ldreq	r1, [r8, #-841]!	@ 0xfffffcb7
  84:	110a0000 	mrsne	r0, (UNDEF: 10)
  88:	130e2501 	movwne	r2, #58625	@ 0xe501
  8c:	1b0e030b 	blne	380cc0 <_STACK_SIZE+0x380bc0>
  90:	1117550e 	tstne	r7, lr, lsl #10
  94:	00171001 	andseq	r1, r7, r1
  98:	00240b00 	eoreq	r0, r4, r0, lsl #22
  9c:	0b3e0b0b 	bleq	f82cd0 <_STACK_SIZE+0xf82bd0>
  a0:	00000803 	andeq	r0, r0, r3, lsl #16
  a4:	0b01170c 	bleq	45cdc <_STACK_SIZE+0x45bdc>
  a8:	3b0b3a0b 	blcc	2ce8dc <_STACK_SIZE+0x2ce7dc>
  ac:	010b390b 	tsteq	fp, fp, lsl #18
  b0:	0d000013 	stceq	0, cr0, [r0, #-76]	@ 0xffffffb4
  b4:	050b0113 	streq	r0, [fp, #-275]	@ 0xfffffeed
  b8:	0b3b0b3a 	bleq	ec2da8 <_STACK_SIZE+0xec2ca8>
  bc:	13010b39 	movwne	r0, #6969	@ 0x1b39
  c0:	0d0e0000 	stceq	0, cr0, [lr, #-0]
  c4:	38134900 	ldmdacc	r3, {r8, fp, lr}
  c8:	0f00000b 	svceq	0x0000000b
  cc:	13490035 	movtne	r0, #36917	@ 0x9035
  d0:	21100000 	tstcs	r0, r0
  d4:	2f134900 	svccs	0x00134900
  d8:	11000005 	tstne	r0, r5
  dc:	193f012e 	ldmdbne	pc!, {r1, r2, r3, r5, r8}	@ <UNPREDICTABLE>
  e0:	0b3a0e03 	bleq	e838f4 <_STACK_SIZE+0xe837f4>
  e4:	0b390b3b 	bleq	e42dd8 <_STACK_SIZE+0xe42cd8>
  e8:	13491927 	movtne	r1, #39207	@ 0x9927
  ec:	1301193c 	movwne	r1, #6460	@ 0x193c
  f0:	05120000 	ldreq	r0, [r2, #-0]
  f4:	00134900 	andseq	r4, r3, r0, lsl #18
  f8:	000f1300 	andeq	r1, pc, r0, lsl #6
  fc:	13490b0b 	movtne	r0, #39691	@ 0x9b0b
 100:	2e140000 	cdpcs	0, 1, cr0, cr4, cr0, {0}
 104:	03193f01 	tsteq	r9, #1, 30
 108:	3b0b3a0e 	blcc	2ce948 <_STACK_SIZE+0x2ce848>
 10c:	270b390b 	strcs	r3, [fp, -fp, lsl #18]
 110:	12011119 	andne	r1, r1, #1073741830	@ 0x40000006
 114:	7c184006 	ldcvc	0, cr4, [r8], {6}
 118:	15000019 	strne	r0, [r0, #-25]	@ 0xffffffe7
 11c:	0e030034 	mcreq	0, 0, r0, cr3, cr4, {1}
 120:	0b3b0b3a 	bleq	ec2e10 <_STACK_SIZE+0xec2d10>
 124:	13490b39 	movtne	r0, #39737	@ 0x9b39
 128:	00001802 	andeq	r1, r0, r2, lsl #16
 12c:	00240100 	eoreq	r0, r4, r0, lsl #2
 130:	0b3e0b0b 	bleq	f82d64 <_STACK_SIZE+0xf82c64>
 134:	00000e03 	andeq	r0, r0, r3, lsl #28
 138:	03003402 	movweq	r3, #1026	@ 0x402
 13c:	01213a0e 			@ <UNDEFINED> instruction: 0x01213a0e
 140:	0b390b3b 	bleq	e42e34 <_STACK_SIZE+0xe42d34>
 144:	18021349 	stmdane	r2, {r0, r3, r6, r8, r9, ip}
 148:	0d030000 	stceq	0, cr0, [r3, #-0]
 14c:	3a080300 	bcc	200d54 <_STACK_SIZE+0x200c54>
 150:	0b3b0421 	bleq	ec11dc <_STACK_SIZE+0xec10dc>
 154:	13490b39 	movtne	r0, #39737	@ 0x9b39
 158:	00000b38 	andeq	r0, r0, r8, lsr fp
 15c:	03000d04 	movweq	r0, #3332	@ 0xd04
 160:	04213a0e 	strteq	r3, [r1], #-2574	@ 0xfffff5f2
 164:	0b390b3b 	bleq	e42e58 <_STACK_SIZE+0xe42d58>
 168:	0b381349 	bleq	e04e94 <_STACK_SIZE+0xe04d94>
 16c:	16050000 	strne	r0, [r5], -r0
 170:	3a0e0300 	bcc	380d78 <_STACK_SIZE+0x380c78>
 174:	390b3b0b 	stmdbcc	fp, {r0, r1, r3, r8, r9, fp, ip, sp}
 178:	0013490b 	andseq	r4, r3, fp, lsl #18
 17c:	01010600 	tsteq	r1, r0, lsl #12
 180:	13011349 	movwne	r1, #4937	@ 0x1349
 184:	21070000 	mrscs	r0, (UNDEF: 7)
 188:	2f134900 	svccs	0x00134900
 18c:	0800000b 	stmdaeq	r0, {r0, r1, r3}
 190:	08030034 	stmdaeq	r3, {r2, r4, r5}
 194:	3b01213a 	blcc	48684 <_STACK_SIZE+0x48584>
 198:	490b390b 	stmdbmi	fp, {r0, r1, r3, r8, fp, ip, sp}
 19c:	00180213 	andseq	r0, r8, r3, lsl r2
 1a0:	000f0900 	andeq	r0, pc, r0, lsl #18
 1a4:	4904210b 	stmdbmi	r4, {r0, r1, r3, r8, sp}
 1a8:	0a000013 	beq	1fc <_STACK_SIZE+0xfc>
 1ac:	0803000d 	stmdaeq	r3, {r0, r2, r3}
 1b0:	3b04213a 	blcc	1086a0 <_STACK_SIZE+0x1085a0>
 1b4:	0e21390b 	vmuleq.f16	s6, s2, s22	@ <UNPREDICTABLE>
 1b8:	00001349 	andeq	r1, r0, r9, asr #6
 1bc:	03000d0b 	movweq	r0, #3339	@ 0xd0b
 1c0:	04213a0e 	strteq	r3, [r1], #-2574	@ 0xfffff5f2
 1c4:	0b390b3b 	bleq	e42eb8 <_STACK_SIZE+0xe42db8>
 1c8:	05381349 	ldreq	r1, [r8, #-841]!	@ 0xfffffcb7
 1cc:	260c0000 	strcs	r0, [ip], -r0
 1d0:	00134900 	andseq	r4, r3, r0, lsl #18
 1d4:	00050d00 	andeq	r0, r5, r0, lsl #26
 1d8:	00001349 	andeq	r1, r0, r9, asr #6
 1dc:	0300050e 	movweq	r0, #1294	@ 0x50e
 1e0:	01213a08 			@ <UNDEFINED> instruction: 0x01213a08
 1e4:	02eb213b 	rsceq	r2, fp, #-1073741810	@ 0xc000000e
 1e8:	13490b39 	movtne	r0, #39737	@ 0x9b39
 1ec:	00001802 	andeq	r1, r0, r2, lsl #16
 1f0:	2501110f 	strcs	r1, [r1, #-271]	@ 0xfffffef1
 1f4:	030b130e 	movweq	r1, #45838	@ 0xb30e
 1f8:	550e1b0e 	strpl	r1, [lr, #-2830]	@ 0xfffff4f2
 1fc:	10011117 	andne	r1, r1, r7, lsl r1
 200:	10000017 	andne	r0, r0, r7, lsl r0
 204:	0e030113 	mcreq	1, 0, r0, cr3, cr3, {0}
 208:	0b3a0b0b 	bleq	e82e3c <_STACK_SIZE+0xe82d3c>
 20c:	13010b3b 	movwne	r0, #6971	@ 0x1b3b
 210:	0d110000 	ldceq	0, cr0, [r1, #-0]
 214:	490e0300 	stmdbmi	lr, {r8, r9}
 218:	340b3813 	strcc	r3, [fp], #-2067	@ 0xfffff7ed
 21c:	12000019 	andne	r0, r0, #25
 220:	0b0b000f 	bleq	2c0264 <_STACK_SIZE+0x2c0164>
 224:	24130000 	ldrcs	r0, [r3], #-0
 228:	3e0b0b00 	vmlacc.f64	d0, d11, d0
 22c:	0008030b 	andeq	r0, r8, fp, lsl #6
 230:	01171400 	tsteq	r7, r0, lsl #8
 234:	0b3a0b0b 	bleq	e82e68 <_STACK_SIZE+0xe82d68>
 238:	0b390b3b 	bleq	e42f2c <_STACK_SIZE+0xe42e2c>
 23c:	00001301 	andeq	r1, r0, r1, lsl #6
 240:	0b011315 	bleq	44e9c <_STACK_SIZE+0x44d9c>
 244:	3b0b3a05 	blcc	2cea60 <_STACK_SIZE+0x2ce960>
 248:	010b390b 	tsteq	fp, fp, lsl #18
 24c:	16000013 			@ <UNDEFINED> instruction: 0x16000013
 250:	1349000d 	movtne	r0, #36877	@ 0x900d
 254:	00000b38 	andeq	r0, r0, r8, lsr fp
 258:	49003517 	stmdbmi	r0, {r0, r1, r2, r4, r8, sl, ip, sp}
 25c:	18000013 	stmdane	r0, {r0, r1, r4}
 260:	13490021 	movtne	r0, #36897	@ 0x9021
 264:	0000052f 	andeq	r0, r0, pc, lsr #10
 268:	3f012e19 	svccc	0x00012e19
 26c:	3a0e0319 	bcc	380ed8 <_STACK_SIZE+0x380dd8>
 270:	390b3b0b 	stmdbcc	fp, {r0, r1, r3, r8, r9, fp, ip, sp}
 274:	3c19270b 	ldccc	7, cr2, [r9], {11}
 278:	00130119 	andseq	r0, r3, r9, lsl r1
 27c:	012e1a00 			@ <UNDEFINED> instruction: 0x012e1a00
 280:	0803193f 	stmdaeq	r3, {r0, r1, r2, r3, r4, r5, r8, fp, ip}
 284:	053b0b3a 	ldreq	r0, [fp, #-2874]!	@ 0xfffff4c6
 288:	19270b39 	stmdbne	r7!, {r0, r3, r4, r5, r8, r9, fp}
 28c:	01111349 	tsteq	r1, r9, asr #6
 290:	18400612 	stmdane	r0, {r1, r4, r9, sl}^
 294:	1301197a 	movwne	r1, #6522	@ 0x197a
 298:	341b0000 	ldrcc	r0, [fp], #-0
 29c:	3a080300 	bcc	200ea4 <_STACK_SIZE+0x200da4>
 2a0:	39053b0b 	stmdbcc	r5, {r0, r1, r3, r8, r9, fp, ip, sp}
 2a4:	0213490b 	andseq	r4, r3, #180224	@ 0x2c000
 2a8:	1c000018 	stcne	0, cr0, [r0], {24}
 2ac:	193f012e 	ldmdbne	pc!, {r1, r2, r3, r5, r8}	@ <UNPREDICTABLE>
 2b0:	0b3a0e03 	bleq	e83ac4 <_STACK_SIZE+0xe839c4>
 2b4:	0b390b3b 	bleq	e42fa8 <_STACK_SIZE+0xe42ea8>
 2b8:	01111927 	tsteq	r1, r7, lsr #18
 2bc:	18400612 	stmdane	r0, {r1, r4, r9, sl}^
 2c0:	1301197c 	movwne	r1, #6524	@ 0x197c
 2c4:	051d0000 	ldreq	r0, [sp, #-0]
 2c8:	3a0e0300 	bcc	380ed0 <_STACK_SIZE+0x380dd0>
 2cc:	390b3b0b 	stmdbcc	fp, {r0, r1, r3, r8, r9, fp, ip, sp}
 2d0:	0213490b 	andseq	r4, r3, #180224	@ 0x2c000
 2d4:	1e000018 	mcrne	0, 0, r0, cr0, cr8, {0}
 2d8:	00000018 	andeq	r0, r0, r8, lsl r0
 2dc:	03000a1f 	movweq	r0, #2591	@ 0xa1f
 2e0:	3b0b3a0e 	blcc	2ceb20 <_STACK_SIZE+0x2cea20>
 2e4:	110b390b 	tstne	fp, fp, lsl #18
 2e8:	20000001 	andcs	r0, r0, r1
 2ec:	0e03000a 	cdpeq	0, 0, cr0, cr3, cr10, {0}
 2f0:	053b0b3a 	ldreq	r0, [fp, #-2874]!	@ 0xfffff4c6
 2f4:	01110b39 	tsteq	r1, r9, lsr fp
 2f8:	01210000 			@ <UNDEFINED> instruction: 0x01210000
 2fc:	00134901 	andseq	r4, r3, r1, lsl #18
 300:	0d010000 	stceq	0, cr0, [r1, #-0]
 304:	3a0e0300 	bcc	380f0c <_STACK_SIZE+0x380e0c>
 308:	0b3b0321 	bleq	ec0f94 <_STACK_SIZE+0xec0e94>
 30c:	13490b39 	movtne	r0, #39737	@ 0x9b39
 310:	00000538 	andeq	r0, r0, r8, lsr r5
 314:	0b002402 	bleq	9324 <_STACK_SIZE+0x9224>
 318:	030b3e0b 	movweq	r3, #48651	@ 0xbe0b
 31c:	0300000e 	movweq	r0, #14
 320:	13490101 	movtne	r0, #37121	@ 0x9101
 324:	00001301 	andeq	r1, r0, r1, lsl #6
 328:	49002104 	stmdbmi	r0, {r2, r8, sp}
 32c:	000b2f13 	andeq	r2, fp, r3, lsl pc
 330:	000d0500 	andeq	r0, sp, r0, lsl #10
 334:	213a0e03 	teqcs	sl, r3, lsl #28
 338:	390b3b03 	stmdbcc	fp, {r0, r1, r8, r9, fp, ip, sp}
 33c:	3813490b 	ldmdacc	r3, {r0, r1, r3, r8, fp, lr}
 340:	0600000b 	streq	r0, [r0], -fp
 344:	0e030016 	mcreq	0, 0, r0, cr3, cr6, {0}
 348:	0b3b0b3a 	bleq	ec3038 <_STACK_SIZE+0xec2f38>
 34c:	13490b39 	movtne	r0, #39737	@ 0x9b39
 350:	0d070000 	stceq	0, cr0, [r7, #-0]
 354:	3a080300 	bcc	200f5c <_STACK_SIZE+0x200e5c>
 358:	0b3b0321 	bleq	ec0fe4 <_STACK_SIZE+0xec0ee4>
 35c:	49152139 	ldmdbmi	r5, {r0, r3, r4, r5, r8, sp}
 360:	000b3813 	andeq	r3, fp, r3, lsl r8
 364:	00350800 	eorseq	r0, r5, r0, lsl #16
 368:	00001349 	andeq	r1, r0, r9, asr #6
 36c:	49002109 	stmdbmi	r0, {r0, r3, r8, sp}
 370:	00052f13 	andeq	r2, r5, r3, lsl pc
 374:	00340a00 	eorseq	r0, r4, r0, lsl #20
 378:	213a0e03 	teqcs	sl, r3, lsl #28
 37c:	390b3b01 	stmdbcc	fp, {r0, r8, r9, fp, ip, sp}
 380:	13491821 	movtne	r1, #38945	@ 0x9821
 384:	00001802 	andeq	r1, r0, r2, lsl #16
 388:	0b000f0b 	bleq	3fbc <_STACK_SIZE+0x3ebc>
 38c:	13490421 	movtne	r0, #37921	@ 0x9421
 390:	260c0000 	strcs	r0, [ip], -r0
 394:	00134900 	andseq	r4, r3, r0, lsl #18
 398:	01110d00 	tsteq	r1, r0, lsl #26
 39c:	0b130e25 	bleq	4c3c38 <_STACK_SIZE+0x4c3b38>
 3a0:	0e1b0e03 	cdpeq	14, 1, cr0, cr11, cr3, {0}
 3a4:	01111755 	tsteq	r1, r5, asr r7
 3a8:	00001710 	andeq	r1, r0, r0, lsl r7
 3ac:	0b00240e 	bleq	93ec <_STACK_SIZE+0x92ec>
 3b0:	030b3e0b 	movweq	r3, #48651	@ 0xbe0b
 3b4:	0f000008 	svceq	0x00000008
 3b8:	0b0b0113 	bleq	2c080c <_STACK_SIZE+0x2c070c>
 3bc:	0b3b0b3a 	bleq	ec30ac <_STACK_SIZE+0xec2fac>
 3c0:	13010b39 	movwne	r0, #6969	@ 0x1b39
 3c4:	13100000 	tstne	r0, #0
 3c8:	3a050b01 	bcc	142fd4 <_STACK_SIZE+0x142ed4>
 3cc:	390b3b0b 	stmdbcc	fp, {r0, r1, r3, r8, r9, fp, ip, sp}
 3d0:	0013010b 	andseq	r0, r3, fp, lsl #2
 3d4:	012e1100 			@ <UNDEFINED> instruction: 0x012e1100
 3d8:	0e03193f 			@ <UNDEFINED> instruction: 0x0e03193f
 3dc:	0b3b0b3a 	bleq	ec30cc <_STACK_SIZE+0xec2fcc>
 3e0:	19270b39 	stmdbne	r7!, {r0, r3, r4, r5, r8, r9, fp}
 3e4:	06120111 			@ <UNDEFINED> instruction: 0x06120111
 3e8:	197a1840 	ldmdbne	sl!, {r6, fp, ip}^
 3ec:	00001301 	andeq	r1, r0, r1, lsl #6
 3f0:	00110100 	andseq	r0, r1, r0, lsl #2
 3f4:	01110610 	tsteq	r1, r0, lsl r6
 3f8:	0e030112 	mcreq	1, 0, r0, cr3, cr2, {0}
 3fc:	0e250e1b 	mcreq	14, 1, r0, cr5, cr11, {0}
 400:	00000513 	andeq	r0, r0, r3, lsl r5
 404:	000d0100 	andeq	r0, sp, r0, lsl #2
 408:	0b3a0e03 	bleq	e83c1c <_STACK_SIZE+0xe83b1c>
 40c:	0b390b3b 	bleq	e43100 <_STACK_SIZE+0xe43000>
 410:	0b381349 	bleq	e0513c <_STACK_SIZE+0xe0503c>
 414:	24020000 	strcs	r0, [r2], #-0
 418:	3e0b0b00 	vmlacc.f64	d0, d11, d0
 41c:	000e030b 	andeq	r0, lr, fp, lsl #6
 420:	000d0300 	andeq	r0, sp, r0, lsl #6
 424:	0b3a0803 	bleq	e82438 <_STACK_SIZE+0xe82338>
 428:	0b390b3b 	bleq	e4311c <_STACK_SIZE+0xe4301c>
 42c:	0b381349 	bleq	e05158 <_STACK_SIZE+0xe05058>
 430:	16040000 	strne	r0, [r4], -r0
 434:	3a0e0300 	bcc	38103c <_STACK_SIZE+0x380f3c>
 438:	390b3b0b 	stmdbcc	fp, {r0, r1, r3, r8, r9, fp, ip, sp}
 43c:	0013490b 	andseq	r4, r3, fp, lsl #18
 440:	000d0500 	andeq	r0, sp, r0, lsl #10
 444:	213a0e03 	teqcs	sl, r3, lsl #28
 448:	390b3b04 	stmdbcc	fp, {r2, r8, r9, fp, ip, sp}
 44c:	3813490b 	ldmdacc	r3, {r0, r1, r3, r8, fp, lr}
 450:	06000005 	streq	r0, [r0], -r5
 454:	13490101 	movtne	r0, #37121	@ 0x9101
 458:	00001301 	andeq	r1, r0, r1, lsl #6
 45c:	49002107 	stmdbmi	r0, {r0, r1, r2, r8, sp}
 460:	000b2f13 	andeq	r2, fp, r3, lsl pc
 464:	01130800 	tsteq	r3, r0, lsl #16
 468:	0b3a0b0b 	bleq	e8309c <_STACK_SIZE+0xe82f9c>
 46c:	0b390b3b 	bleq	e43160 <_STACK_SIZE+0xe43060>
 470:	00001301 	andeq	r1, r0, r1, lsl #6
 474:	49003509 	stmdbmi	r0, {r0, r3, r8, sl, ip, sp}
 478:	0a000013 	beq	4cc <_STACK_SIZE+0x3cc>
 47c:	210b000f 	tstcs	fp, pc
 480:	00134904 	andseq	r4, r3, r4, lsl #18
 484:	00340b00 	eorseq	r0, r4, r0, lsl #22
 488:	213a0e03 	teqcs	sl, r3, lsl #28
 48c:	390b3b01 	stmdbcc	fp, {r0, r8, r9, fp, ip, sp}
 490:	0213490b 	andseq	r4, r3, #180224	@ 0x2c000
 494:	0c000018 	stceq	0, cr0, [r0], {24}
 498:	0e250111 	mcreq	1, 1, r0, cr5, cr1, {0}
 49c:	0e030b13 	vmoveq.32	d3[0], r0
 4a0:	17550e1b 	smmlane	r5, fp, lr, r0
 4a4:	17100111 			@ <UNDEFINED> instruction: 0x17100111
 4a8:	240d0000 	strcs	r0, [sp], #-0
 4ac:	3e0b0b00 	vmlacc.f64	d0, d11, d0
 4b0:	0008030b 	andeq	r0, r8, fp, lsl #6
 4b4:	01130e00 	tsteq	r3, r0, lsl #28
 4b8:	0b3a050b 	bleq	e818ec <_STACK_SIZE+0xe817ec>
 4bc:	0b390b3b 	bleq	e431b0 <_STACK_SIZE+0xe430b0>
 4c0:	00001301 	andeq	r1, r0, r1, lsl #6
 4c4:	4900210f 	stmdbmi	r0, {r0, r1, r2, r3, r8, sp}
 4c8:	00052f13 	andeq	r2, r5, r3, lsl pc
 4cc:	00341000 	eorseq	r1, r4, r0
 4d0:	0b3a0e03 	bleq	e83ce4 <_STACK_SIZE+0xe83be4>
 4d4:	0b390b3b 	bleq	e431c8 <_STACK_SIZE+0xe430c8>
 4d8:	193f1349 	ldmdbne	pc!, {r0, r3, r6, r8, r9, ip}	@ <UNPREDICTABLE>
 4dc:	0000193c 	andeq	r1, r0, ip, lsr r9
 4e0:	3f002e11 	svccc	0x00002e11
 4e4:	3a0e0319 	bcc	381150 <_STACK_SIZE+0x381050>
 4e8:	390b3b0b 	stmdbcc	fp, {r0, r1, r3, r8, r9, fp, ip, sp}
 4ec:	4919270b 	ldmdbmi	r9, {r0, r1, r3, r8, r9, sl, sp}
 4f0:	00193c13 	andseq	r3, r9, r3, lsl ip
 4f4:	012e1200 			@ <UNDEFINED> instruction: 0x012e1200
 4f8:	0e03193f 			@ <UNDEFINED> instruction: 0x0e03193f
 4fc:	0b3b0b3a 	bleq	ec31ec <_STACK_SIZE+0xec30ec>
 500:	19270b39 	stmdbne	r7!, {r0, r3, r4, r5, r8, r9, fp}
 504:	01111349 	tsteq	r1, r9, asr #6
 508:	18400612 	stmdane	r0, {r1, r4, r9, sl}^
 50c:	1301197c 	movwne	r1, #6524	@ 0x197c
 510:	05130000 	ldreq	r0, [r3, #-0]
 514:	3a0e0300 	bcc	38111c <_STACK_SIZE+0x38101c>
 518:	390b3b0b 	stmdbcc	fp, {r0, r1, r3, r8, r9, fp, ip, sp}
 51c:	0213490b 	andseq	r4, r3, #180224	@ 0x2c000
 520:	00000018 	andeq	r0, r0, r8, lsl r0
 524:	0b002401 	bleq	9530 <_STACK_SIZE+0x9430>
 528:	030b3e0b 	movweq	r3, #48651	@ 0xbe0b
 52c:	0200000e 	andeq	r0, r0, #14
 530:	0e030034 	mcreq	0, 0, r0, cr3, cr4, {1}
 534:	3b01213a 	blcc	48a24 <_STACK_SIZE+0x48924>
 538:	490b390b 	stmdbmi	fp, {r0, r1, r3, r8, fp, ip, sp}
 53c:	00180213 	andseq	r0, r8, r3, lsl r2
 540:	000f0300 	andeq	r0, pc, r0, lsl #6
 544:	4904210b 	stmdbmi	r4, {r0, r1, r3, r8, sp}
 548:	04000013 	streq	r0, [r0], #-19	@ 0xffffffed
 54c:	0e250111 	mcreq	1, 1, r0, cr5, cr1, {0}
 550:	0e030b13 	vmoveq.32	d3[0], r0
 554:	01110e1b 	tsteq	r1, fp, lsl lr
 558:	17100612 			@ <UNDEFINED> instruction: 0x17100612
 55c:	16050000 	strne	r0, [r5], -r0
 560:	3a0e0300 	bcc	381168 <_STACK_SIZE+0x381068>
 564:	390b3b0b 	stmdbcc	fp, {r0, r1, r3, r8, r9, fp, ip, sp}
 568:	0013490b 	andseq	r4, r3, fp, lsl #18
 56c:	00240600 	eoreq	r0, r4, r0, lsl #12
 570:	0b3e0b0b 	bleq	f831a4 <_STACK_SIZE+0xf830a4>
 574:	00000803 	andeq	r0, r0, r3, lsl #16
 578:	3f012e07 	svccc	0x00012e07
 57c:	3a0e0319 	bcc	3811e8 <_STACK_SIZE+0x3810e8>
 580:	390b3b0b 	stmdbcc	fp, {r0, r1, r3, r8, r9, fp, ip, sp}
 584:	3c19270b 	ldccc	7, cr2, [r9], {11}
 588:	00130119 	andseq	r0, r3, r9, lsl r1
 58c:	00050800 	andeq	r0, r5, r0, lsl #16
 590:	00001349 	andeq	r1, r0, r9, asr #6
 594:	00001809 	andeq	r1, r0, r9, lsl #16
 598:	00260a00 	eoreq	r0, r6, r0, lsl #20
 59c:	00001349 	andeq	r1, r0, r9, asr #6
 5a0:	3f012e0b 	svccc	0x00012e0b
 5a4:	3a0e0319 	bcc	381210 <_STACK_SIZE+0x381110>
 5a8:	390b3b0b 	stmdbcc	fp, {r0, r1, r3, r8, r9, fp, ip, sp}
 5ac:	1119270b 	tstne	r9, fp, lsl #14
 5b0:	40061201 	andmi	r1, r6, r1, lsl #4
 5b4:	01197c18 	tsteq	r9, r8, lsl ip
 5b8:	0c000013 	stceq	0, cr0, [r0], {19}
 5bc:	08030005 	stmdaeq	r3, {r0, r2}
 5c0:	0b3b0b3a 	bleq	ec32b0 <_STACK_SIZE+0xec31b0>
 5c4:	13490b39 	movtne	r0, #39737	@ 0x9b39
 5c8:	00001802 	andeq	r1, r0, r2, lsl #16
 5cc:	0300340d 	movweq	r3, #1037	@ 0x40d
 5d0:	3b0b3a08 	blcc	2cedf8 <_STACK_SIZE+0x2cecf8>
 5d4:	490b390b 	stmdbmi	fp, {r0, r1, r3, r8, fp, ip, sp}
 5d8:	00180213 	andseq	r0, r8, r3, lsl r2
 5dc:	010b0e00 	tsteq	fp, r0, lsl #28
 5e0:	06120111 			@ <UNDEFINED> instruction: 0x06120111
 5e4:	00001301 	andeq	r1, r0, r1, lsl #6
 5e8:	11010b0f 	tstne	r1, pc, lsl #22
 5ec:	00061201 	andeq	r1, r6, r1, lsl #4
 5f0:	24010000 	strcs	r0, [r1], #-0
 5f4:	3e0b0b00 	vmlacc.f64	d0, d11, d0
 5f8:	000e030b 	andeq	r0, lr, fp, lsl #6
 5fc:	00340200 	eorseq	r0, r4, r0, lsl #4
 600:	213a0e03 	teqcs	sl, r3, lsl #28
 604:	390b3b01 	stmdbcc	fp, {r0, r8, r9, fp, ip, sp}
 608:	3f13490b 	svccc	0x0013490b
 60c:	00180219 	andseq	r0, r8, r9, lsl r2
 610:	00340300 	eorseq	r0, r4, r0, lsl #6
 614:	213a0e03 	teqcs	sl, r3, lsl #28
 618:	390b3b01 	stmdbcc	fp, {r0, r8, r9, fp, ip, sp}
 61c:	13491121 	movtne	r1, #37153	@ 0x9121
 620:	193c193f 	ldmdbne	ip!, {r0, r1, r2, r3, r4, r5, r8, fp, ip}
 624:	01040000 	mrseq	r0, (UNDEF: 4)
 628:	01134901 	tsteq	r3, r1, lsl #18
 62c:	05000013 	streq	r0, [r0, #-19]	@ 0xffffffed
 630:	13490021 	movtne	r0, #36897	@ 0x9021
 634:	0003212f 	andeq	r2, r3, pc, lsr #2
 638:	002e0600 	eoreq	r0, lr, r0, lsl #12
 63c:	0e03193f 			@ <UNDEFINED> instruction: 0x0e03193f
 640:	3b03213a 	blcc	c8b30 <_STACK_SIZE+0xc8a30>
 644:	0621390b 	strteq	r3, [r1], -fp, lsl #18
 648:	193c1927 	ldmdbne	ip!, {r0, r1, r2, r5, r8, fp, ip}
 64c:	0d070000 	stceq	0, cr0, [r7, #-0]
 650:	3a0e0300 	bcc	381258 <_STACK_SIZE+0x381158>
 654:	0b3b0221 	bleq	ec0ee0 <_STACK_SIZE+0xec0de0>
 658:	490f2139 	stmdbmi	pc, {r0, r3, r4, r5, r8, sp}	@ <UNPREDICTABLE>
 65c:	000b3813 	andeq	r3, fp, r3, lsl r8
 660:	000f0800 	andeq	r0, pc, r0, lsl #16
 664:	4904210b 	stmdbmi	r4, {r0, r1, r3, r8, sp}
 668:	09000013 	stmdbeq	r0, {r0, r1, r4}
 66c:	08030034 	stmdaeq	r3, {r2, r4, r5}
 670:	3b01213a 	blcc	48b60 <_STACK_SIZE+0x48a60>
 674:	490b390b 	stmdbmi	fp, {r0, r1, r3, r8, fp, ip, sp}
 678:	00180213 	andseq	r0, r8, r3, lsl r2
 67c:	01110a00 	tsteq	r1, r0, lsl #20
 680:	0b130e25 	bleq	4c3f1c <_STACK_SIZE+0x4c3e1c>
 684:	0e1b0e03 	cdpeq	14, 1, cr0, cr11, cr3, {0}
 688:	01111755 	tsteq	r1, r5, asr r7
 68c:	00001710 	andeq	r1, r0, r0, lsl r7
 690:	0300160b 	movweq	r1, #1547	@ 0x60b
 694:	3b0b3a0e 	blcc	2ceed4 <_STACK_SIZE+0x2cedd4>
 698:	490b390b 	stmdbmi	fp, {r0, r1, r3, r8, fp, ip, sp}
 69c:	0c000013 	stceq	0, cr0, [r0], {19}
 6a0:	0b0b0024 	bleq	2c0738 <_STACK_SIZE+0x2c0638>
 6a4:	08030b3e 	stmdaeq	r3, {r1, r2, r3, r4, r5, r8, r9, fp}
 6a8:	130d0000 	movwne	r0, #53248	@ 0xd000
 6ac:	3a0b0b01 	bcc	2c32b8 <_STACK_SIZE+0x2c31b8>
 6b0:	390b3b0b 	stmdbcc	fp, {r0, r1, r3, r8, r9, fp, ip, sp}
 6b4:	0013010b 	andseq	r0, r3, fp, lsl #2
 6b8:	000d0e00 	andeq	r0, sp, r0, lsl #28
 6bc:	0b3a0803 	bleq	e826d0 <_STACK_SIZE+0xe825d0>
 6c0:	0b390b3b 	bleq	e433b4 <_STACK_SIZE+0xe432b4>
 6c4:	0b381349 	bleq	e053f0 <_STACK_SIZE+0xe052f0>
 6c8:	160f0000 	strne	r0, [pc], -r0
 6cc:	3a080300 	bcc	2012d4 <_STACK_SIZE+0x2011d4>
 6d0:	390b3b0b 	stmdbcc	fp, {r0, r1, r3, r8, r9, fp, ip, sp}
 6d4:	0013490b 	andseq	r4, r3, fp, lsl #18
 6d8:	00151000 	andseq	r1, r5, r0
 6dc:	00001927 	andeq	r1, r0, r7, lsr #18
 6e0:	3f012e11 	svccc	0x00012e11
 6e4:	3a0e0319 	bcc	381350 <_STACK_SIZE+0x381250>
 6e8:	390b3b0b 	stmdbcc	fp, {r0, r1, r3, r8, r9, fp, ip, sp}
 6ec:	4919270b 	ldmdbmi	r9, {r0, r1, r3, r8, r9, sl, sp}
 6f0:	12011113 	andne	r1, r1, #-1073741820	@ 0xc0000004
 6f4:	7a184006 	bvc	610714 <_STACK_SIZE+0x610614>
 6f8:	00130119 	andseq	r0, r3, r9, lsl r1
 6fc:	00341200 	eorseq	r1, r4, r0, lsl #4
 700:	0b3a0e03 	bleq	e83f14 <_STACK_SIZE+0xe83e14>
 704:	0b390b3b 	bleq	e433f8 <_STACK_SIZE+0xe432f8>
 708:	18021349 	stmdane	r2, {r0, r3, r6, r8, r9, ip}
 70c:	2e130000 	cdpcs	0, 1, cr0, cr3, cr0, {0}
 710:	03193f01 	tsteq	r9, #1, 30
 714:	3b0b3a0e 	blcc	2cef54 <_STACK_SIZE+0x2cee54>
 718:	270b390b 	strcs	r3, [fp, -fp, lsl #18]
 71c:	12011119 	andne	r1, r1, #1073741830	@ 0x40000006
 720:	7c184006 	ldcvc	0, cr4, [r8], {6}
 724:	00130119 	andseq	r0, r3, r9, lsl r1
 728:	010b1400 	tsteq	fp, r0, lsl #8
 72c:	06120111 			@ <UNDEFINED> instruction: 0x06120111
 730:	2e150000 	cdpcs	0, 1, cr0, cr5, cr0, {0}
 734:	03193f01 	tsteq	r9, #1, 30
 738:	3b0b3a0e 	blcc	2cef78 <_STACK_SIZE+0x2cee78>
 73c:	270b390b 	strcs	r3, [fp, -fp, lsl #18]
 740:	12011119 	andne	r1, r1, #1073741830	@ 0x40000006
 744:	7a184006 	bvc	610764 <_STACK_SIZE+0x610664>
 748:	00130119 	andseq	r0, r3, r9, lsl r1
 74c:	00051600 	andeq	r1, r5, r0, lsl #12
 750:	0b3a0803 	bleq	e82764 <_STACK_SIZE+0xe82664>
 754:	0b390b3b 	bleq	e43448 <_STACK_SIZE+0xe43348>
 758:	18021349 	stmdane	r2, {r0, r3, r6, r8, r9, ip}
 75c:	05170000 	ldreq	r0, [r7, #-0]
 760:	3a0e0300 	bcc	381368 <_STACK_SIZE+0x381268>
 764:	390b3b0b 	stmdbcc	fp, {r0, r1, r3, r8, r9, fp, ip, sp}
 768:	0213490b 	andseq	r4, r3, #180224	@ 0x2c000
 76c:	00000018 	andeq	r0, r0, r8, lsl r0
 770:	0b002401 	bleq	977c <_STACK_SIZE+0x967c>
 774:	030b3e0b 	movweq	r3, #48651	@ 0xbe0b
 778:	0200000e 	andeq	r0, r0, #14
 77c:	193f012e 	ldmdbne	pc!, {r1, r2, r3, r5, r8}	@ <UNPREDICTABLE>
 780:	213a0e03 	teqcs	sl, r3, lsl #28
 784:	390b3b01 	stmdbcc	fp, {r0, r8, r9, fp, ip, sp}
 788:	19270621 	stmdbne	r7!, {r0, r5, r9, sl}
 78c:	06120111 			@ <UNDEFINED> instruction: 0x06120111
 790:	197a1840 	ldmdbne	sl!, {r6, fp, ip}^
 794:	00001301 	andeq	r1, r0, r1, lsl #6
 798:	03000503 	movweq	r0, #1283	@ 0x503
 79c:	01213a08 			@ <UNDEFINED> instruction: 0x01213a08
 7a0:	0b390b3b 	bleq	e43494 <_STACK_SIZE+0xe43394>
 7a4:	18021349 	stmdane	r2, {r0, r3, r6, r8, r9, ip}
 7a8:	11040000 	mrsne	r0, (UNDEF: 4)
 7ac:	130e2501 	movwne	r2, #58625	@ 0xe501
 7b0:	1b0e030b 	blne	3813e4 <_STACK_SIZE+0x3812e4>
 7b4:	1201110e 	andne	r1, r1, #-2147483645	@ 0x80000003
 7b8:	00171006 	andseq	r1, r7, r6
 7bc:	00160500 	andseq	r0, r6, r0, lsl #10
 7c0:	0b3a0e03 	bleq	e83fd4 <_STACK_SIZE+0xe83ed4>
 7c4:	0b390b3b 	bleq	e434b8 <_STACK_SIZE+0xe433b8>
 7c8:	00001349 	andeq	r1, r0, r9, asr #6
 7cc:	0b002406 	bleq	97ec <_STACK_SIZE+0x96ec>
 7d0:	030b3e0b 	movweq	r3, #48651	@ 0xbe0b
 7d4:	07000008 	streq	r0, [r0, -r8]
 7d8:	0b0b000f 	bleq	2c081c <_STACK_SIZE+0x2c071c>
 7dc:	00001349 	andeq	r1, r0, r9, asr #6
 7e0:	49002608 	stmdbmi	r0, {r3, r9, sl, sp}
 7e4:	00000013 	andeq	r0, r0, r3, lsl r0
 7e8:	0b002401 	bleq	97f4 <_STACK_SIZE+0x96f4>
 7ec:	030b3e0b 	movweq	r3, #48651	@ 0xbe0b
 7f0:	0200000e 	andeq	r0, r0, #14
 7f4:	08030034 	stmdaeq	r3, {r2, r4, r5}
 7f8:	3b01213a 	blcc	48ce8 <_STACK_SIZE+0x48be8>
 7fc:	490b390b 	stmdbmi	fp, {r0, r1, r3, r8, fp, ip, sp}
 800:	00180213 	andseq	r0, r8, r3, lsl r2
 804:	012e0300 			@ <UNDEFINED> instruction: 0x012e0300
 808:	0e03193f 			@ <UNDEFINED> instruction: 0x0e03193f
 80c:	3b01213a 	blcc	48cfc <_STACK_SIZE+0x48bfc>
 810:	3021390b 	eorcc	r3, r1, fp, lsl #18
 814:	01111927 	tsteq	r1, r7, lsr #18
 818:	18400612 	stmdane	r0, {r1, r4, r9, sl}^
 81c:	1301197c 	movwne	r1, #6524	@ 0x197c
 820:	34040000 	strcc	r0, [r4], #-0
 824:	3a0e0300 	bcc	38142c <_STACK_SIZE+0x38132c>
 828:	0b3b0121 	bleq	ec0cb4 <_STACK_SIZE+0xec0bb4>
 82c:	13490b39 	movtne	r0, #39737	@ 0x9b39
 830:	00001802 	andeq	r1, r0, r2, lsl #16
 834:	3f012e05 	svccc	0x00012e05
 838:	3a0e0319 	bcc	3814a4 <_STACK_SIZE+0x3813a4>
 83c:	0b3b0221 	bleq	ec10c8 <_STACK_SIZE+0xec0fc8>
 840:	27062139 	smladxcs	r6, r9, r1, r2
 844:	01193c19 	tsteq	r9, r9, lsl ip
 848:	06000013 			@ <UNDEFINED> instruction: 0x06000013
 84c:	13490005 	movtne	r0, #36869	@ 0x9005
 850:	0b070000 	bleq	1c0858 <_STACK_SIZE+0x1c0758>
 854:	12011101 	andne	r1, r1, #1073741824	@ 0x40000000
 858:	08000006 	stmdaeq	r0, {r1, r2}
 85c:	0e250111 	mcreq	1, 1, r0, cr5, cr1, {0}
 860:	0e030b13 	vmoveq.32	d3[0], r0
 864:	17550e1b 	smmlane	r5, fp, lr, r0
 868:	17100111 			@ <UNDEFINED> instruction: 0x17100111
 86c:	16090000 	strne	r0, [r9], -r0
 870:	3a0e0300 	bcc	381478 <_STACK_SIZE+0x381378>
 874:	390b3b0b 	stmdbcc	fp, {r0, r1, r3, r8, r9, fp, ip, sp}
 878:	0013490b 	andseq	r4, r3, fp, lsl #18
 87c:	00240a00 	eoreq	r0, r4, r0, lsl #20
 880:	0b3e0b0b 	bleq	f834b4 <_STACK_SIZE+0xf833b4>
 884:	00000803 	andeq	r0, r0, r3, lsl #16
 888:	0b000f0b 	bleq	44bc <_STACK_SIZE+0x43bc>
 88c:	0013490b 	andseq	r4, r3, fp, lsl #18
 890:	00260c00 	eoreq	r0, r6, r0, lsl #24
 894:	00001349 	andeq	r1, r0, r9, asr #6
 898:	3f002e0d 	svccc	0x00002e0d
 89c:	3a0e0319 	bcc	381508 <_STACK_SIZE+0x381408>
 8a0:	390b3b0b 	stmdbcc	fp, {r0, r1, r3, r8, r9, fp, ip, sp}
 8a4:	1119270b 	tstne	r9, fp, lsl #14
 8a8:	40061201 	andmi	r1, r6, r1, lsl #4
 8ac:	00197a18 	andseq	r7, r9, r8, lsl sl
 8b0:	0d010000 	stceq	0, cr0, [r1, #-0]
 8b4:	3a0e0300 	bcc	3814bc <_STACK_SIZE+0x3813bc>
 8b8:	0b3b0321 	bleq	ec1544 <_STACK_SIZE+0xec1444>
 8bc:	13490b39 	movtne	r0, #39737	@ 0x9b39
 8c0:	00000b38 	andeq	r0, r0, r8, lsr fp
 8c4:	0b002402 	bleq	98d4 <_STACK_SIZE+0x97d4>
 8c8:	030b3e0b 	movweq	r3, #48651	@ 0xbe0b
 8cc:	0300000e 	movweq	r0, #14
 8d0:	0e03000d 	cdpeq	0, 0, cr0, cr3, cr13, {0}
 8d4:	3b03213a 	blcc	c8dc4 <_STACK_SIZE+0xc8cc4>
 8d8:	490b390b 	stmdbmi	fp, {r0, r1, r3, r8, fp, ip, sp}
 8dc:	00053813 	andeq	r3, r5, r3, lsl r8
 8e0:	01010400 	tsteq	r1, r0, lsl #8
 8e4:	13011349 	movwne	r1, #4937	@ 0x1349
 8e8:	16050000 	strne	r0, [r5], -r0
 8ec:	3a0e0300 	bcc	3814f4 <_STACK_SIZE+0x3813f4>
 8f0:	390b3b0b 	stmdbcc	fp, {r0, r1, r3, r8, r9, fp, ip, sp}
 8f4:	0013490b 	andseq	r4, r3, fp, lsl #18
 8f8:	00210600 	eoreq	r0, r1, r0, lsl #12
 8fc:	0b2f1349 	bleq	bc5628 <_STACK_SIZE+0xbc5528>
 900:	11070000 	mrsne	r0, (UNDEF: 7)
 904:	130e2501 	movwne	r2, #58625	@ 0xe501
 908:	1b0e030b 	blne	38153c <_STACK_SIZE+0x38143c>
 90c:	1117550e 	tstne	r7, lr, lsl #10
 910:	00171001 	andseq	r1, r7, r1
 914:	00240800 	eoreq	r0, r4, r0, lsl #16
 918:	0b3e0b0b 	bleq	f8354c <_STACK_SIZE+0xf8344c>
 91c:	00000803 	andeq	r0, r0, r3, lsl #16
 920:	0b011309 	bleq	4554c <_STACK_SIZE+0x4544c>
 924:	3b0b3a05 	blcc	2cf140 <_STACK_SIZE+0x2cf040>
 928:	010b390b 	tsteq	fp, fp, lsl #18
 92c:	0a000013 	beq	980 <_STACK_SIZE+0x880>
 930:	13490035 	movtne	r0, #36917	@ 0x9035
 934:	210b0000 	mrscs	r0, (UNDEF: 11)
 938:	2f134900 	svccs	0x00134900
 93c:	0c000005 	stceq	0, cr0, [r0], {5}
 940:	193f012e 	ldmdbne	pc!, {r1, r2, r3, r5, r8}	@ <UNPREDICTABLE>
 944:	0b3a0e03 	bleq	e84158 <_STACK_SIZE+0xe84058>
 948:	0b390b3b 	bleq	e4363c <_STACK_SIZE+0xe4353c>
 94c:	01111927 	tsteq	r1, r7, lsr #18
 950:	18400612 	stmdane	r0, {r1, r4, r9, sl}^
 954:	1301197a 	movwne	r1, #6522	@ 0x197a
 958:	340d0000 	strcc	r0, [sp], #-0
 95c:	3a0e0300 	bcc	381564 <_STACK_SIZE+0x381464>
 960:	390b3b0b 	stmdbcc	fp, {r0, r1, r3, r8, r9, fp, ip, sp}
 964:	0213490b 	andseq	r4, r3, #180224	@ 0x2c000
 968:	0e000018 	mcreq	0, 0, r0, cr0, cr8, {0}
 96c:	0b0b000f 	bleq	2c09b0 <_STACK_SIZE+0x2c08b0>
 970:	00001349 	andeq	r1, r0, r9, asr #6
 974:	4900260f 	stmdbmi	r0, {r0, r1, r2, r3, r9, sl, sp}
 978:	00000013 	andeq	r0, r0, r3, lsl r0
 97c:	03000501 	movweq	r0, #1281	@ 0x501
 980:	01213a08 			@ <UNDEFINED> instruction: 0x01213a08
 984:	0b390b3b 	bleq	e43678 <_STACK_SIZE+0xe43578>
 988:	18021349 	stmdane	r2, {r0, r3, r6, r8, r9, ip}
 98c:	24020000 	strcs	r0, [r2], #-0
 990:	3e0b0b00 	vmlacc.f64	d0, d11, d0
 994:	000e030b 	andeq	r0, lr, fp, lsl #6
 998:	000d0300 	andeq	r0, sp, r0, lsl #6
 99c:	213a0803 	teqcs	sl, r3, lsl #16
 9a0:	390b3b03 	stmdbcc	fp, {r0, r1, r8, r9, fp, ip, sp}
 9a4:	3813490b 	ldmdacc	r3, {r0, r1, r3, r8, fp, lr}
 9a8:	0400000b 	streq	r0, [r0], #-11
 9ac:	0e03000d 	cdpeq	0, 0, cr0, cr3, cr13, {0}
 9b0:	3b03213a 	blcc	c8ea0 <_STACK_SIZE+0xc8da0>
 9b4:	490b390b 	stmdbmi	fp, {r0, r1, r3, r8, fp, ip, sp}
 9b8:	000b3813 	andeq	r3, fp, r3, lsl r8
 9bc:	00340500 	eorseq	r0, r4, r0, lsl #10
 9c0:	213a0e03 	teqcs	sl, r3, lsl #28
 9c4:	390b3b01 	stmdbcc	fp, {r0, r8, r9, fp, ip, sp}
 9c8:	0213490b 	andseq	r4, r3, #180224	@ 0x2c000
 9cc:	06000018 			@ <UNDEFINED> instruction: 0x06000018
 9d0:	0e030016 	mcreq	0, 0, r0, cr3, cr6, {0}
 9d4:	0b3b0b3a 	bleq	ec36c4 <_STACK_SIZE+0xec35c4>
 9d8:	13490b39 	movtne	r0, #39737	@ 0x9b39
 9dc:	01070000 	mrseq	r0, (UNDEF: 7)
 9e0:	01134901 	tsteq	r3, r1, lsl #18
 9e4:	08000013 	stmdaeq	r0, {r0, r1, r4}
 9e8:	13490021 	movtne	r0, #36897	@ 0x9021
 9ec:	00000b2f 	andeq	r0, r0, pc, lsr #22
 9f0:	3f012e09 	svccc	0x00012e09
 9f4:	3a0e0319 	bcc	381660 <_STACK_SIZE+0x381560>
 9f8:	0b3b0121 	bleq	ec0e84 <_STACK_SIZE+0xec0d84>
 9fc:	272f2139 			@ <UNDEFINED> instruction: 0x272f2139
 a00:	12011119 	andne	r1, r1, #1073741830	@ 0x40000006
 a04:	7c184006 	ldcvc	0, cr4, [r8], {6}
 a08:	00130119 	andseq	r0, r3, r9, lsl r1
 a0c:	000f0a00 	andeq	r0, pc, r0, lsl #20
 a10:	4904210b 	stmdbmi	r4, {r0, r1, r3, r8, sp}
 a14:	0b000013 	bleq	a68 <_STACK_SIZE+0x968>
 a18:	193f012e 	ldmdbne	pc!, {r1, r2, r3, r5, r8}	@ <UNPREDICTABLE>
 a1c:	213a0e03 	teqcs	sl, r3, lsl #28
 a20:	390b3b01 	stmdbcc	fp, {r0, r8, r9, fp, ip, sp}
 a24:	4919270b 	ldmdbmi	r9, {r0, r1, r3, r8, r9, sl, sp}
 a28:	12011113 	andne	r1, r1, #-1073741820	@ 0xc0000004
 a2c:	7a184006 	bvc	610a4c <_STACK_SIZE+0x61094c>
 a30:	00130119 	andseq	r0, r3, r9, lsl r1
 a34:	000d0c00 	andeq	r0, sp, r0, lsl #24
 a38:	213a0803 	teqcs	sl, r3, lsl #16
 a3c:	390b3b03 	stmdbcc	fp, {r0, r1, r8, r9, fp, ip, sp}
 a40:	13490e21 	movtne	r0, #40481	@ 0x9e21
 a44:	0d0d0000 	stceq	0, cr0, [sp, #-0]
 a48:	3a0e0300 	bcc	381650 <_STACK_SIZE+0x381550>
 a4c:	0b3b0321 	bleq	ec16d8 <_STACK_SIZE+0xec15d8>
 a50:	13490b39 	movtne	r0, #39737	@ 0x9b39
 a54:	00000538 	andeq	r0, r0, r8, lsr r5
 a58:	0300340e 	movweq	r3, #1038	@ 0x40e
 a5c:	01213a08 			@ <UNDEFINED> instruction: 0x01213a08
 a60:	0b390b3b 	bleq	e43754 <_STACK_SIZE+0xe43654>
 a64:	18021349 	stmdane	r2, {r0, r3, r6, r8, r9, ip}
 a68:	110f0000 	mrsne	r0, CPSR
 a6c:	130e2501 	movwne	r2, #58625	@ 0xe501
 a70:	1b0e030b 	blne	3816a4 <_STACK_SIZE+0x3815a4>
 a74:	1117550e 	tstne	r7, lr, lsl #10
 a78:	00171001 	andseq	r1, r7, r1
 a7c:	00241000 	eoreq	r1, r4, r0
 a80:	0b3e0b0b 	bleq	f836b4 <_STACK_SIZE+0xf835b4>
 a84:	00000803 	andeq	r0, r0, r3, lsl #16
 a88:	0b011711 	bleq	466d4 <_STACK_SIZE+0x465d4>
 a8c:	3b0b3a0b 	blcc	2cf2c0 <_STACK_SIZE+0x2cf1c0>
 a90:	010b390b 	tsteq	fp, fp, lsl #18
 a94:	12000013 	andne	r0, r0, #19
 a98:	050b0113 	streq	r0, [fp, #-275]	@ 0xfffffeed
 a9c:	0b3b0b3a 	bleq	ec378c <_STACK_SIZE+0xec368c>
 aa0:	13010b39 	movwne	r0, #6969	@ 0x1b39
 aa4:	0d130000 	ldceq	0, cr0, [r3, #-0]
 aa8:	38134900 	ldmdacc	r3, {r8, fp, lr}
 aac:	1400000b 	strne	r0, [r0], #-11
 ab0:	13490035 	movtne	r0, #36917	@ 0x9035
 ab4:	21150000 	tstcs	r5, r0
 ab8:	2f134900 	svccs	0x00134900
 abc:	16000005 	strne	r0, [r0], -r5
 ac0:	13490026 	movtne	r0, #36902	@ 0x9026
 ac4:	2e170000 	cdpcs	0, 1, cr0, cr7, cr0, {0}
 ac8:	03193f01 	tsteq	r9, #1, 30
 acc:	3b0b3a0e 	blcc	2cf30c <_STACK_SIZE+0x2cf20c>
 ad0:	270b390b 	strcs	r3, [fp, -fp, lsl #18]
 ad4:	11134919 	tstne	r3, r9, lsl r9
 ad8:	40061201 	andmi	r1, r6, r1, lsl #4
 adc:	01197c18 	tsteq	r9, r8, lsl ip
 ae0:	18000013 	stmdane	r0, {r0, r1, r4}
 ae4:	193f012e 	ldmdbne	pc!, {r1, r2, r3, r5, r8}	@ <UNPREDICTABLE>
 ae8:	0b3a0e03 	bleq	e842fc <_STACK_SIZE+0xe841fc>
 aec:	0b390b3b 	bleq	e437e0 <_STACK_SIZE+0xe436e0>
 af0:	01111927 	tsteq	r1, r7, lsr #18
 af4:	18400612 	stmdane	r0, {r1, r4, r9, sl}^
 af8:	1301197a 	movwne	r1, #6522	@ 0x197a
 afc:	2e190000 	cdpcs	0, 1, cr0, cr9, cr0, {0}
 b00:	03193f01 	tsteq	r9, #1, 30
 b04:	3b0b3a0e 	blcc	2cf344 <_STACK_SIZE+0x2cf244>
 b08:	270b390b 	strcs	r3, [fp, -fp, lsl #18]
 b0c:	11134919 	tstne	r3, r9, lsl r9
 b10:	40061201 	andmi	r1, r6, r1, lsl #4
 b14:	00197a18 	andseq	r7, r9, r8, lsl sl
 b18:	00051a00 	andeq	r1, r5, r0, lsl #20
 b1c:	0b3a0e03 	bleq	e84330 <_STACK_SIZE+0xe84230>
 b20:	0b390b3b 	bleq	e43814 <_STACK_SIZE+0xe43714>
 b24:	18021349 	stmdane	r2, {r0, r3, r6, r8, r9, ip}
 b28:	01000000 	mrseq	r0, (UNDEF: 0)
 b2c:	17100111 			@ <UNDEFINED> instruction: 0x17100111
 b30:	0f120111 	svceq	0x00120111
 b34:	0e1b0e03 	cdpeq	14, 1, cr0, cr11, cr3, {0}
 b38:	05130e25 	ldreq	r0, [r3, #-3621]	@ 0xfffff1db
 b3c:	2e020000 	cdpcs	0, 0, cr0, cr2, cr0, {0}
 b40:	3f0e0300 	svccc	0x000e0300
 b44:	11154919 	tstne	r5, r9, lsl r9
 b48:	000f1201 	andeq	r1, pc, r1, lsl #4
 b4c:	003b0300 	eorseq	r0, fp, r0, lsl #6
 b50:	01000000 	mrseq	r0, (UNDEF: 0)
 b54:	17100111 			@ <UNDEFINED> instruction: 0x17100111
 b58:	0f120111 	svceq	0x00120111
 b5c:	0e1b0e03 	cdpeq	14, 1, cr0, cr11, cr3, {0}
 b60:	05130e25 	ldreq	r0, [r3, #-3621]	@ 0xfffff1db
 b64:	2e020000 	cdpcs	0, 0, cr0, cr2, cr0, {0}
 b68:	490e0300 	stmdbmi	lr, {r8, r9}
 b6c:	12011115 	andne	r1, r1, #1073741829	@ 0x40000005
 b70:	0300000f 	movweq	r0, #15
 b74:	0000003b 	andeq	r0, r0, fp, lsr r0
	...

Disassembly of section .debug_aranges:

00000000 <.debug_aranges>:
   0:	0000001c 	andeq	r0, r0, ip, lsl r0
   4:	00000002 	andeq	r0, r0, r2
   8:	00040000 	andeq	r0, r4, r0
   c:	00000000 	andeq	r0, r0, r0
  10:	70010ed8 	ldrdvc	r0, [r1], -r8
  14:	00000030 	andeq	r0, r0, r0, lsr r0
	...
  20:	00000024 	andeq	r0, r0, r4, lsr #32
  24:	02330002 	eorseq	r0, r3, #2
  28:	00040000 	andeq	r0, r4, r0
  2c:	00000000 	andeq	r0, r0, r0
  30:	70010108 	andvc	r0, r1, r8, lsl #2
  34:	000005a4 	andeq	r0, r0, r4, lsr #11
  38:	700106ac 	andvc	r0, r1, ip, lsr #13
  3c:	00000060 	andeq	r0, r0, r0, rrx
	...
  48:	0000001c 	andeq	r0, r0, ip, lsl r0
  4c:	05dc0002 	ldrbeq	r0, [ip, #2]
  50:	00040000 	andeq	r0, r4, r0
  54:	00000000 	andeq	r0, r0, r0
  58:	7001070c 	andvc	r0, r1, ip, lsl #14
  5c:	0000007c 	andeq	r0, r0, ip, ror r0
	...
  68:	0000001c 	andeq	r0, r0, ip, lsl r0
  6c:	08cd0002 	stmiaeq	sp, {r1}^
  70:	00040000 	andeq	r0, r4, r0
  74:	00000000 	andeq	r0, r0, r0
  78:	700100b4 	strhvc	r0, [r1], -r4
  7c:	00000054 	andeq	r0, r0, r4, asr r0
	...
  88:	0000001c 	andeq	r0, r0, ip, lsl r0
  8c:	08f30002 	ldmeq	r3!, {r1}^
  90:	00040000 	andeq	r0, r4, r0
  94:	00000000 	andeq	r0, r0, r0
  98:	700112bc 			@ <UNDEFINED> instruction: 0x700112bc
  9c:	000000bc 	strheq	r0, [r0], -ip
	...
  a8:	0000001c 	andeq	r0, r0, ip, lsl r0
  ac:	0c1c0002 	ldceq	0, cr0, [ip], {2}
  b0:	00040000 	andeq	r0, r4, r0
  b4:	00000000 	andeq	r0, r0, r0
  b8:	70010f08 	andvc	r0, r1, r8, lsl #30
  bc:	000000b4 	strheq	r0, [r0], -r4
	...
  c8:	0000002c 	andeq	r0, r0, ip, lsr #32
  cc:	0d410002 	stcleq	0, cr0, [r1, #-8]
  d0:	00040000 	andeq	r0, r4, r0
  d4:	00000000 	andeq	r0, r0, r0
  d8:	70010fbc 			@ <UNDEFINED> instruction: 0x70010fbc
  dc:	000000c0 	andeq	r0, r0, r0, asr #1
  e0:	70010788 	andvc	r0, r1, r8, lsl #15
  e4:	000000f8 	strdeq	r0, [r0], -r8
  e8:	70010880 	andvc	r0, r1, r0, lsl #17
  ec:	00000174 	andeq	r0, r0, r4, ror r1
	...
  f8:	0000001c 	andeq	r0, r0, ip, lsl r0
  fc:	0fef0002 	svceq	0x00ef0002
 100:	00040000 	andeq	r0, r4, r0
 104:	00000000 	andeq	r0, r0, r0
 108:	7001107c 	andvc	r1, r1, ip, ror r0
 10c:	00000058 	andeq	r0, r0, r8, asr r0
	...
 118:	00000034 	andeq	r0, r0, r4, lsr r0
 11c:	10be0002 	adcsne	r0, lr, r2
 120:	00040000 	andeq	r0, r4, r0
 124:	00000000 	andeq	r0, r0, r0
 128:	70011378 	andvc	r1, r1, r8, ror r3
 12c:	00000010 	andeq	r0, r0, r0, lsl r0
 130:	70011388 	andvc	r1, r1, r8, lsl #7
 134:	00000088 	andeq	r0, r0, r8, lsl #1
 138:	70011410 	andvc	r1, r1, r0, lsl r4
 13c:	00000098 	muleq	r0, r8, r0
 140:	700114a8 	andvc	r1, r1, r8, lsr #9
 144:	000000bc 	strheq	r0, [r0], -ip
	...
 150:	0000001c 	andeq	r0, r0, ip, lsl r0
 154:	12340002 	eorsne	r0, r4, #2
 158:	00040000 	andeq	r0, r4, r0
 15c:	00000000 	andeq	r0, r0, r0
 160:	700109f4 	strdvc	r0, [r1], -r4
 164:	0000007c 	andeq	r0, r0, ip, ror r0
	...
 170:	0000005c 	andeq	r0, r0, ip, asr r0
 174:	14480002 	strbne	r0, [r8], #-2
 178:	00040000 	andeq	r0, r4, r0
 17c:	00000000 	andeq	r0, r0, r0
 180:	70010a70 	andvc	r0, r1, r0, ror sl
 184:	0000010c 	andeq	r0, r0, ip, lsl #2
 188:	70010b7c 	andvc	r0, r1, ip, ror fp
 18c:	00000094 	muleq	r0, r4, r0
 190:	70010c10 	andvc	r0, r1, r0, lsl ip
 194:	0000007c 	andeq	r0, r0, ip, ror r0
 198:	70010c8c 	andvc	r0, r1, ip, lsl #25
 19c:	0000004c 	andeq	r0, r0, ip, asr #32
 1a0:	70010cd8 	ldrdvc	r0, [r1], -r8
 1a4:	00000044 	andeq	r0, r0, r4, asr #32
 1a8:	70010d1c 	andvc	r0, r1, ip, lsl sp
 1ac:	0000006c 	andeq	r0, r0, ip, rrx
 1b0:	70010d88 	andvc	r0, r1, r8, lsl #27
 1b4:	00000070 	andeq	r0, r0, r0, ror r0
 1b8:	70010df8 	strdvc	r0, [r1], -r8
 1bc:	00000060 	andeq	r0, r0, r0, rrx
 1c0:	70010e58 	andvc	r0, r1, r8, asr lr
 1c4:	00000080 	andeq	r0, r0, r0, lsl #1
	...
 1d0:	0000001c 	andeq	r0, r0, ip, lsl r0
 1d4:	18150002 	ldmdane	r5, {r1}
 1d8:	00040000 	andeq	r0, r4, r0
 1dc:	00000000 	andeq	r0, r0, r0
 1e0:	700110d4 	ldrdvc	r1, [r1], -r4
 1e4:	00000114 	andeq	r0, r0, r4, lsl r1
	...
 1f0:	0000001c 	andeq	r0, r0, ip, lsl r0
 1f4:	18530002 	ldmdane	r3, {r1}^
 1f8:	00040000 	andeq	r0, r4, r0
 1fc:	00000000 	andeq	r0, r0, r0
 200:	700111e8 	andvc	r1, r1, r8, ror #3
 204:	00000004 	andeq	r0, r0, r4
	...

Disassembly of section .debug_rnglists:

00000000 <.debug_rnglists>:
   0:	0000000f 	andeq	r0, r0, pc
   4:	00040005 	andeq	r0, r4, r5
   8:	00000000 	andeq	r0, r0, r0
   c:	010ed807 	tsteq	lr, r7, lsl #16
  10:	16003070 			@ <UNDEFINED> instruction: 0x16003070
  14:	05000000 	streq	r0, [r0, #-0]
  18:	00000400 	andeq	r0, r0, r0, lsl #8
  1c:	07000000 	streq	r0, [r0, -r0]
  20:	70010108 	andvc	r0, r1, r8, lsl #2
  24:	ac070ba4 			@ <UNDEFINED> instruction: 0xac070ba4
  28:	60700106 	rsbsvs	r0, r0, r6, lsl #2
  2c:	00000f00 	andeq	r0, r0, r0, lsl #30
  30:	04000500 	streq	r0, [r0], #-1280	@ 0xfffffb00
  34:	00000000 	andeq	r0, r0, r0
  38:	070c0700 	streq	r0, [ip, -r0, lsl #14]
  3c:	007c7001 	rsbseq	r7, ip, r1
  40:	00000010 	andeq	r0, r0, r0, lsl r0
  44:	00040005 	andeq	r0, r4, r5
  48:	00000000 	andeq	r0, r0, r0
  4c:	0112bc07 	tsteq	r2, r7, lsl #24
  50:	0001bc70 	andeq	fp, r1, r0, ror ip
  54:	0000001e 	andeq	r0, r0, lr, lsl r0
  58:	00040005 	andeq	r0, r4, r5
  5c:	00000000 	andeq	r0, r0, r0
  60:	010fbc07 	tsteq	pc, r7, lsl #24
  64:	0701c070 	smlsdxeq	r1, r0, r0, ip
  68:	70010788 	andvc	r0, r1, r8, lsl #15
  6c:	800701f8 	strdhi	r0, [r7], -r8
  70:	f4700108 			@ <UNDEFINED> instruction: 0xf4700108
  74:	00240002 	eoreq	r0, r4, r2
  78:	00050000 	andeq	r0, r5, r0
  7c:	00000004 	andeq	r0, r0, r4
  80:	78070000 	stmdavc	r7, {}	@ <UNPREDICTABLE>
  84:	10700113 	rsbsne	r0, r0, r3, lsl r1
  88:	01138807 	tsteq	r3, r7, lsl #16
  8c:	07018870 	smlsdxeq	r1, r0, r8, r8
  90:	70011410 	andvc	r1, r1, r0, lsl r4
  94:	a8070198 	stmdage	r7, {r3, r4, r7, r8}
  98:	bc700114 	ldflte	f0, [r0], #-80	@ 0xffffffb0
  9c:	000f0001 	andeq	r0, pc, r1
  a0:	00050000 	andeq	r0, r5, r0
  a4:	00000004 	andeq	r0, r0, r4
  a8:	f4070000 	vst4.8	{d0-d3}, [r7], r0
  ac:	7c700109 	ldfvce	f0, [r0], #-36	@ 0xffffffdc
  b0:	00004200 	andeq	r4, r0, r0, lsl #4
  b4:	04000500 	streq	r0, [r0], #-1280	@ 0xfffffb00
  b8:	00000000 	andeq	r0, r0, r0
  bc:	0a700700 	beq	1c01cc4 <_STACK_SIZE+0x1c01bc4>
  c0:	028c7001 	addeq	r7, ip, #1
  c4:	010b7c07 	tsteq	fp, r7, lsl #24
  c8:	07019470 	smlsdxeq	r1, r0, r4, r9
  cc:	70010c10 	andvc	r0, r1, r0, lsl ip
  d0:	0c8c077c 	stceq	7, cr0, [ip], {124}	@ 0x7c
  d4:	074c7001 	strbeq	r7, [ip, -r1]
  d8:	70010cd8 	ldrdvc	r0, [r1], -r8
  dc:	0d1c0744 	ldceq	7, cr0, [ip, #-272]	@ 0xfffffef0
  e0:	076c7001 	strbeq	r7, [ip, -r1]!
  e4:	70010d88 	andvc	r0, r1, r8, lsl #27
  e8:	0df80770 	ldcleq	7, cr0, [r8, #448]!	@ 0x1c0
  ec:	07607001 	strbeq	r7, [r0, -r1]!
  f0:	70010e58 	andvc	r0, r1, r8, asr lr
  f4:	Address 0xf4 is out of bounds.


Disassembly of section .debug_line:

00000000 <.debug_line>:
   0:	000000c6 	andeq	r0, r0, r6, asr #1
   4:	00a60003 	adceq	r0, r6, r3
   8:	01020000 	mrseq	r0, (UNDEF: 2)
   c:	000d0efb 	strdeq	r0, [sp], -fp
  10:	01010101 	tsteq	r1, r1, lsl #2
  14:	01000000 	mrseq	r0, (UNDEF: 0)
  18:	73010000 	movwvc	r0, #4096	@ 0x1000
  1c:	6b2f6372 	blvs	bd8dec <_STACK_SIZE+0xbd8cec>
  20:	656e7265 	strbvs	r7, [lr, #-613]!	@ 0xfffffd9b
  24:	752f006c 	strvc	r0, [pc, #-108]!	@ ffffffc0 <__system_stack_tasks_end__+0x8ffdf1c0>
  28:	6c2f7273 	sfmvs	f7, 4, [pc], #-460	@ fffffe64 <__system_stack_tasks_end__+0x8ffdf064>
  2c:	672f6269 	strvs	r6, [pc, -r9, ror #4]!
  30:	612f6363 			@ <UNDEFINED> instruction: 0x612f6363
  34:	6e2d6d72 	mcrvs	13, 1, r6, cr13, cr2, {3}
  38:	2d656e6f 	stclcs	14, cr6, [r5, #-444]!	@ 0xfffffe44
  3c:	69626165 	stmdbvs	r2!, {r0, r2, r5, r6, r8, sp, lr}^
  40:	2e33312f 	rsfcssp	f3, f3, #10.0
  44:	2f312e32 	svccs	0x00312e32
  48:	6c636e69 	stclvs	14, cr6, [r3], #-420	@ 0xfffffe5c
  4c:	00656475 	rsbeq	r6, r5, r5, ror r4
  50:	2f637273 	svccs	0x00637273
  54:	6e72656b 	cdpvs	5, 7, cr6, cr2, cr11, {3}
  58:	2e2f6c65 	cdpcs	12, 2, cr6, cr15, cr5, {3}
  5c:	2e2e2f2e 	cdpcs	15, 2, cr2, cr14, cr14, {1}
  60:	636e692f 	cmnvs	lr, #770048	@ 0xbc000
  64:	6f620000 	svcvs	0x00620000
  68:	5f647261 	svcpl	0x00647261
  6c:	74696e69 	strbtvc	r6, [r9], #-3689	@ 0xfffff197
  70:	0100632e 	tsteq	r0, lr, lsr #6
  74:	74730000 	ldrbtvc	r0, [r3], #-0
  78:	746e6964 	strbtvc	r6, [lr], #-2404	@ 0xfffff69c
  7c:	0200682e 	andeq	r6, r0, #3014656	@ 0x2e0000
  80:	61750000 	cmnvs	r5, r0
  84:	682e7472 	stmdavs	lr!, {r1, r4, r5, r6, sl, ip, sp, lr}
  88:	00000300 	andeq	r0, r0, r0, lsl #6
  8c:	65686373 	strbvs	r6, [r8, #-883]!	@ 0xfffffc8d
  90:	656c7564 	strbvs	r7, [ip, #-1380]!	@ 0xfffffa9c
  94:	00682e72 	rsbeq	r2, r8, r2, ror lr
  98:	74000003 	strvc	r0, [r0], #-3
  9c:	72656d69 	rsbvc	r6, r5, #6720	@ 0x1a40
  a0:	0300682e 	movweq	r6, #2094	@ 0x82e
  a4:	69670000 	stmdbvs	r7!, {}^	@ <UNPREDICTABLE>
  a8:	00682e63 	rsbeq	r2, r8, r3, ror #28
  ac:	00000003 	andeq	r0, r0, r3
  b0:	05000105 	streq	r0, [r0, #-261]	@ 0xfffffefb
  b4:	010ed802 	tsteq	lr, r2, lsl #16
  b8:	05051970 	streq	r1, [r5, #-2416]	@ 0xfffff690
  bc:	052f2f69 	streq	r2, [pc, #-3945]!	@ fffff15b <__system_stack_tasks_end__+0x8ffde35b>
  c0:	01052f16 	tsteq	r5, r6, lsl pc
  c4:	00060267 	andeq	r0, r6, r7, ror #4
  c8:	02910101 	addseq	r0, r1, #1073741824	@ 0x40000000
  cc:	00030000 	andeq	r0, r3, r0
  d0:	0000009e 	muleq	r0, lr, r0
  d4:	0efb0102 	cdpeq	1, 15, cr0, cr11, cr2, {0}
  d8:	0101000d 	tsteq	r1, sp
  dc:	00000101 	andeq	r0, r0, r1, lsl #2
  e0:	00000100 	andeq	r0, r0, r0, lsl #2
  e4:	63727301 	cmnvs	r2, #67108864	@ 0x4000000
  e8:	6974752f 	ldmdbvs	r4!, {r0, r1, r2, r3, r5, r8, sl, ip, sp, lr}^
  ec:	2f00736c 	svccs	0x0000736c
  f0:	2f727375 	svccs	0x00727375
  f4:	2f62696c 	svccs	0x0062696c
  f8:	2f636367 	svccs	0x00636367
  fc:	2d6d7261 	sfmcs	f7, 2, [sp, #-388]!	@ 0xfffffe7c
 100:	656e6f6e 	strbvs	r6, [lr, #-3950]!	@ 0xfffff092
 104:	6261652d 	rsbvs	r6, r1, #188743680	@ 0xb400000
 108:	33312f69 	teqcc	r1, #420	@ 0x1a4
 10c:	312e322e 			@ <UNDEFINED> instruction: 0x312e322e
 110:	636e692f 	cmnvs	lr, #770048	@ 0xbc000
 114:	6564756c 	strbvs	r7, [r4, #-1388]!	@ 0xfffffa94
 118:	63727300 	cmnvs	r2, #0, 6
 11c:	6974752f 	ldmdbvs	r4!, {r0, r1, r2, r3, r5, r8, sl, ip, sp, lr}^
 120:	2e2f736c 	cdpcs	3, 2, cr7, cr15, cr12, {3}
 124:	2e2e2f2e 	cdpcs	15, 2, cr2, cr14, cr14, {1}
 128:	636e692f 	cmnvs	lr, #770048	@ 0xbc000
 12c:	6f630000 	svcvs	0x00630000
 130:	6c6f736e 	stclvs	3, cr7, [pc], #-440	@ ffffff80 <__system_stack_tasks_end__+0x8ffdf180>
 134:	74755f65 	ldrbtvc	r5, [r5], #-3941	@ 0xfffff09b
 138:	2e736c69 	cdpcs	12, 7, cr6, cr3, cr9, {3}
 13c:	00010063 	andeq	r0, r1, r3, rrx
 140:	64747300 	ldrbtvs	r7, [r4], #-768	@ 0xfffffd00
 144:	2e677261 	cdpcs	2, 6, cr7, cr7, cr1, {3}
 148:	00020068 	andeq	r0, r2, r8, rrx
 14c:	64747300 	ldrbtvs	r7, [r4], #-768	@ 0xfffffd00
 150:	2e746e69 	cdpcs	14, 7, cr6, cr4, cr9, {3}
 154:	00020068 	andeq	r0, r2, r8, rrx
 158:	72617500 	rsbvc	r7, r1, #0, 10
 15c:	00682e74 	rsbeq	r2, r8, r4, ror lr
 160:	3c000003 	stccc	0, cr0, [r0], {3}
 164:	6c697562 	cfstr64vs	mvdx7, [r9], #-392	@ 0xfffffe78
 168:	6e692d74 	mcrvs	13, 3, r2, cr9, cr4, {3}
 16c:	0000003e 	andeq	r0, r0, lr, lsr r0
 170:	01050000 	mrseq	r0, (UNDEF: 5)
 174:	08020500 	stmdaeq	r2, {r8, sl}
 178:	03700101 	cmneq	r0, #1073741824	@ 0x40000000
 17c:	0e050129 	adfeqsp	f0, f5, #1.0
 180:	6a120587 	bvs	4817a4 <_STACK_SIZE+0x4816a4>
 184:	054f0505 	strbeq	r0, [pc, #-1285]	@ fffffc87 <__system_stack_tasks_end__+0x8ffdee87>
 188:	11054d0a 	tstne	r5, sl, lsl #26
 18c:	4a090531 	bmi	241658 <_STACK_SIZE+0x241558>
 190:	02004905 	andeq	r4, r0, #81920	@ 0x14000
 194:	052e0404 	streq	r0, [lr, #-1028]!	@ 0xfffffbfc
 198:	0402001e 	streq	r0, [r2], #-30	@ 0xffffffe2
 19c:	2c056601 	stccs	6, cr6, [r5], {1}
 1a0:	01040200 	mrseq	r0, R12_usr
 1a4:	00360582 	eorseq	r0, r6, r2, lsl #11
 1a8:	4a030402 	bmi	c11b8 <_STACK_SIZE+0xc10b8>
 1ac:	02002c05 	andeq	r2, r0, #1280	@ 0x500
 1b0:	05820304 	streq	r0, [r2, #772]	@ 0x304
 1b4:	10055009 	andne	r5, r5, r9
 1b8:	850c05a1 	strhi	r0, [ip, #-1441]	@ 0xfffffa5f
 1bc:	054a0b05 	strbeq	r0, [sl, #-2821]	@ 0xfffff4fb
 1c0:	4b6c4d13 	blmi	1b13614 <_STACK_SIZE+0x1b13514>
 1c4:	0a031b05 	beq	c6de0 <_STACK_SIZE+0xc6ce0>
 1c8:	6614054a 	ldrvs	r0, [r4], -sl, asr #10
 1cc:	052e0d05 	streq	r0, [lr, #-3333]!	@ 0xfffff2fb
 1d0:	0212031f 	andseq	r0, r2, #2080374784	@ 0x7c000000
 1d4:	17050162 	strne	r0, [r5, -r2, ror #2]
 1d8:	002c0566 	eoreq	r0, ip, r6, ror #10
 1dc:	4a010402 	bmi	411ec <_STACK_SIZE+0x410ec>
 1e0:	05681f05 	strbeq	r1, [r8, #-3845]!	@ 0xfffff0fb
 1e4:	24054e1b 	strcs	r4, [r5], #-3611	@ 0xfffff1e5
 1e8:	661b0583 	ldrvs	r0, [fp], -r3, lsl #11
 1ec:	05a11505 	streq	r1, [r1, #1285]!	@ 0x505
 1f0:	1b05351d 	blne	14d66c <_STACK_SIZE+0x14d56c>
 1f4:	01040200 	mrseq	r0, R12_usr
 1f8:	33150582 	tstcc	r5, #545259520	@ 0x20800000
 1fc:	351d0585 	ldrcc	r0, [sp, #-1413]	@ 0xfffffa7b
 200:	02001b05 	andeq	r1, r0, #5120	@ 0x1400
 204:	05820104 	streq	r0, [r2, #260]	@ 0x104
 208:	18053119 	stmdane	r5, {r0, r3, r4, r8, ip, sp}
 20c:	2e170550 	mrccs	5, 0, r0, cr7, cr0, {2}
 210:	054d2205 	strbeq	r2, [sp, #-517]	@ 0xfffffdfb
 214:	1f052e21 	svcne	0x00052e21
 218:	311d052e 	tstcc	sp, lr, lsr #10
 21c:	4e1a056e 	cfmsc32mi	mvfx0, mvfx10, mvfx14
 220:	054d1505 	strbeq	r1, [sp, #-1285]	@ 0xfffffafb
 224:	1d05351b 	cfstr32ne	mvfx3, [r5, #-108]	@ 0xffffff94
 228:	4a1505a1 	bmi	5418b4 <_STACK_SIZE+0x5417b4>
 22c:	02003a05 	andeq	r3, r0, #20480	@ 0x5000
 230:	052e0304 	streq	r0, [lr, #-772]!	@ 0xfffffcfc
 234:	04020028 	streq	r0, [r2], #-40	@ 0xffffffd8
 238:	2e056601 	cfmadd32cs	mvax0, mvfx6, mvfx5, mvfx1
 23c:	01040200 	mrseq	r0, R12_usr
 240:	50150582 	andspl	r0, r5, r2, lsl #11
 244:	05a11705 	streq	r1, [r1, #1797]!	@ 0x705
 248:	1e05841f 	cfmvdlrne	mvd5, r8
 24c:	311d0583 	tstcc	sp, r3, lsl #11
 250:	057f2405 	ldrbeq	r2, [pc, #-1029]!	@ fffffe53 <__system_stack_tasks_end__+0x8ffdf053>
 254:	1505661f 	strne	r6, [r5, #-1567]	@ 0xfffff9e1
 258:	351d0551 	ldrcc	r0, [sp, #-1361]	@ 0xfffffaaf
 25c:	02001b05 	andeq	r1, r0, #5120	@ 0x1400
 260:	05820104 	streq	r0, [r2, #260]	@ 0x104
 264:	1a053119 	bne	14c6d0 <_STACK_SIZE+0x14c5d0>
 268:	4e19054d 	cfmac32mi	mvfx0, mvfx9, mvfx13
 26c:	054d1505 	strbeq	r1, [sp, #-1285]	@ 0xfffffafb
 270:	2e0e031d 	mcrcs	3, 0, r0, cr14, cr13, {0}
 274:	02001b05 	andeq	r1, r0, #5120	@ 0x1400
 278:	05820104 	streq	r0, [r2, #260]	@ 0x104
 27c:	1a053319 	bne	14cee8 <_STACK_SIZE+0x14cde8>
 280:	5019054d 	andspl	r0, r9, sp, asr #10
 284:	05511d05 	ldrbeq	r1, [r1, #-3333]	@ 0xfffff2fb
 288:	1d054a15 	vstrne	s8, [r5, #-84]	@ 0xffffffac
 28c:	822b0530 	eorhi	r0, fp, #48, 10	@ 0xc000000
 290:	05652005 	strbeq	r2, [r5, #-5]!
 294:	33056628 	movwcc	r6, #22056	@ 0x5628
 298:	0402002e 	streq	r0, [r2], #-46	@ 0xffffffd2
 29c:	054a0601 	strbeq	r0, [sl, #-1537]	@ 0xfffff9ff
 2a0:	0a030617 	beq	c1b04 <_STACK_SIZE+0xc1a04>
 2a4:	681e0566 	ldmdavs	lr, {r1, r2, r5, r6, r8, sl}
 2a8:	056d1705 	strbeq	r1, [sp, #-1797]!	@ 0xfffff8fb
 2ac:	0402001c 	streq	r0, [r2], #-28	@ 0xffffffe4
 2b0:	22056601 	andcs	r6, r5, #1048576	@ 0x100000
 2b4:	66260569 	strtvs	r0, [r6], -r9, ror #10
 2b8:	05881d05 	streq	r1, [r8, #3333]	@ 0xd05
 2bc:	24054f17 	strcs	r4, [r5], #-3863	@ 0xfffff0e9
 2c0:	01040200 	mrseq	r0, R12_usr
 2c4:	68220566 	stmdavs	r2!, {r1, r2, r5, r6, r8, sl}
 2c8:	05661905 	strbeq	r1, [r6, #-2309]!	@ 0xfffff6fb
 2cc:	2a053126 	bcs	14c76c <_STACK_SIZE+0x14c66c>
 2d0:	00320566 	eorseq	r0, r2, r6, ror #10
 2d4:	7f030402 	svcvc	0x00030402
 2d8:	02002605 	andeq	r2, r0, #5242880	@ 0x500000
 2dc:	05660104 	strbeq	r0, [r6, #-260]!	@ 0xfffffefc
 2e0:	66090317 			@ <UNDEFINED> instruction: 0x66090317
 2e4:	05692205 	strbeq	r2, [r9, #-517]!	@ 0xfffffdfb
 2e8:	22056626 	andcs	r6, r5, #39845888	@ 0x2600000
 2ec:	4c150586 	cfldr32mi	mvfx0, [r5], {134}	@ 0x86
 2f0:	05311d05 	ldreq	r1, [r1, #-3333]!	@ 0xfffff2fb
 2f4:	2205832f 	andcs	r8, r5, #-1140850688	@ 0xbc000000
 2f8:	662f0582 	strtvs	r0, [pc], -r2, lsl #11
 2fc:	052e2605 	streq	r2, [lr, #-1541]!	@ 0xfffff9fb
 300:	26056738 			@ <UNDEFINED> instruction: 0x26056738
 304:	00410566 	subeq	r0, r1, r6, ror #10
 308:	61060402 	tstvs	r6, r2, lsl #8
 30c:	02003305 	andeq	r3, r0, #335544320	@ 0x14000000
 310:	05660104 	strbeq	r0, [r6, #-260]!	@ 0xfffffefc
 314:	04020041 	streq	r0, [r2], #-65	@ 0xffffffbf
 318:	24059e02 	strcs	r9, [r5], #-3586	@ 0xfffff1fe
 31c:	04040200 	streq	r0, [r4], #-512	@ 0xfffffe00
 320:	001b054a 	andseq	r0, fp, sl, asr #10
 324:	2e050402 	cdpcs	4, 0, cr0, cr5, cr2, {0}
 328:	0a031505 	beq	c5744 <_STACK_SIZE+0xc5644>
 32c:	0903bd66 	stmdbeq	r3, {r1, r2, r5, r6, r8, sl, fp, ip, sp, pc}
 330:	8536a12e 	ldrhi	sl, [r6, #-302]!	@ 0xfffffed2
 334:	2e7eef03 	cdpcs	15, 7, cr14, cr14, cr3, {0}
 338:	f0030b05 			@ <UNDEFINED> instruction: 0xf0030b05
 33c:	01052e7e 	tsteq	r5, lr, ror lr
 340:	8202ae03 	andhi	sl, r2, #3, 28	@ 0x30
 344:	9f0e05bd 	svcls	0x000e05bd
 348:	054c0a05 	strbeq	r0, [ip, #-2565]	@ 0xfffff5fb
 34c:	0a05310d 	beq	14c788 <_STACK_SIZE+0x14c688>
 350:	620f0583 	andvs	r0, pc, #549453824	@ 0x20c00000
 354:	05880c05 	streq	r0, [r8, #3077]	@ 0xc05
 358:	08022f01 	stmdaeq	r2, {r0, r8, r9, sl, fp, sp}
 35c:	a6010100 	strge	r0, [r1], -r0, lsl #2
 360:	03000000 	movweq	r0, #0
 364:	00007900 	andeq	r7, r0, r0, lsl #18
 368:	fb010200 	blx	40b72 <_STACK_SIZE+0x40a72>
 36c:	01000d0e 	tsteq	r0, lr, lsl #26
 370:	00010101 	andeq	r0, r1, r1, lsl #2
 374:	00010000 	andeq	r0, r1, r0
 378:	72730100 	rsbsvc	r0, r3, #0, 2
 37c:	6f622f63 	svcvs	0x00622f63
 380:	00647261 	rsbeq	r7, r4, r1, ror #4
 384:	7273752f 	rsbsvc	r7, r3, #197132288	@ 0xbc00000
 388:	62696c2f 	rsbvs	r6, r9, #12032	@ 0x2f00
 38c:	6363672f 	cmnvs	r3, #12320768	@ 0xbc0000
 390:	6d72612f 	ldfvse	f6, [r2, #-188]!	@ 0xffffff44
 394:	6e6f6e2d 	cdpvs	14, 6, cr6, cr15, cr13, {1}
 398:	61652d65 	cmnvs	r5, r5, ror #26
 39c:	312f6962 			@ <UNDEFINED> instruction: 0x312f6962
 3a0:	2e322e33 	mrccs	14, 1, r2, cr2, cr3, {1}
 3a4:	6e692f31 	mcrvs	15, 3, r2, cr9, cr1, {1}
 3a8:	64756c63 	ldrbtvs	r6, [r5], #-3171	@ 0xfffff39d
 3ac:	72730065 	rsbsvc	r0, r3, #101	@ 0x65
 3b0:	6f622f63 	svcvs	0x00622f63
 3b4:	2f647261 	svccs	0x00647261
 3b8:	2e2f2e2e 	cdpcs	14, 2, cr2, cr15, cr14, {1}
 3bc:	6e692f2e 	cdpvs	15, 6, cr2, cr9, cr14, {1}
 3c0:	67000063 	strvs	r0, [r0, -r3, rrx]
 3c4:	632e6369 			@ <UNDEFINED> instruction: 0x632e6369
 3c8:	00000100 	andeq	r0, r0, r0, lsl #2
 3cc:	69647473 	stmdbvs	r4!, {r0, r1, r4, r5, r6, sl, ip, sp, lr}^
 3d0:	682e746e 	stmdavs	lr!, {r1, r2, r3, r5, r6, sl, ip, sp, lr}
 3d4:	00000200 	andeq	r0, r0, r0, lsl #4
 3d8:	2e636967 	vnmulcs.f16	s13, s6, s15	@ <UNPREDICTABLE>
 3dc:	00030068 	andeq	r0, r3, r8, rrx
 3e0:	3c050000 	stccc	0, cr0, [r5], {-0}
 3e4:	0c020500 	cfstr32eq	mvfx0, [r2], {-0}
 3e8:	17700107 	ldrbne	r0, [r0, -r7, lsl #2]!
 3ec:	4b671805 	blmi	19c6408 <_STACK_SIZE+0x19c6308>
 3f0:	05681505 	strbeq	r1, [r8, #-1285]!	@ 0xfffffafb
 3f4:	1d056719 	stcne	7, cr6, [r5, #-100]	@ 0xffffff9c
 3f8:	6719054a 	ldrvs	r0, [r9, -sl, asr #10]
 3fc:	674a1d05 	strbvs	r1, [sl, -r5, lsl #26]
 400:	67050567 	strvs	r0, [r5, -r7, ror #10]
 404:	01000802 	tsteq	r0, r2, lsl #16
 408:	00005201 	andeq	r5, r0, r1, lsl #4
 40c:	29000200 	stmdbcs	r0, {r9}
 410:	02000000 	andeq	r0, r0, #0
 414:	0a0efb01 	beq	3bf020 <_STACK_SIZE+0x3bef20>
 418:	01010100 	mrseq	r0, (UNDEF: 17)
 41c:	00000001 	andeq	r0, r0, r1
 420:	63727301 	cmnvs	r2, #67108864	@ 0x4000000
 424:	72656b2f 	rsbvc	r6, r5, #48128	@ 0xbc00
 428:	006c656e 	rsbeq	r6, ip, lr, ror #10
 42c:	6e616800 	cdpvs	8, 6, cr6, cr1, cr0, {0}
 430:	72656c64 	rsbvc	r6, r5, #100, 24	@ 0x6400
 434:	00732e73 	rsbseq	r2, r3, r3, ror lr
 438:	00000001 	andeq	r0, r0, r1
 43c:	b4020500 	strlt	r0, [r2], #-1280	@ 0xfffffb00
 440:	03700100 	cmneq	r0, #0, 2
 444:	2c330116 	ldfcss	f0, [r3], #-88	@ 0xffffffa8
 448:	2e2e2c2f 	cdpcs	12, 2, cr2, cr14, cr15, {1}
 44c:	2c302e2e 	ldccs	14, cr2, [r0], #-184	@ 0xffffff48
 450:	2e2c2c2c 	cdpcs	12, 2, cr2, cr12, cr12, {1}
 454:	2c2c2e2c 	stccs	14, cr2, [ip], #-176	@ 0xffffff50
 458:	02022e2c 	andeq	r2, r2, #44, 28	@ 0x2c0
 45c:	f0010100 			@ <UNDEFINED> instruction: 0xf0010100
 460:	03000000 	movweq	r0, #0
 464:	00009e00 	andeq	r9, r0, r0, lsl #28
 468:	fb010200 	blx	40c72 <_STACK_SIZE+0x40b72>
 46c:	01000d0e 	tsteq	r0, lr, lsl #26
 470:	00010101 	andeq	r0, r1, r1, lsl #2
 474:	00010000 	andeq	r0, r1, r0
 478:	72730100 	rsbsvc	r0, r3, #0, 2
 47c:	72692f63 	rsbvc	r2, r9, #396	@ 0x18c
 480:	752f0071 	strvc	r0, [pc, #-113]!	@ 417 <_STACK_SIZE+0x317>
 484:	6c2f7273 	sfmvs	f7, 4, [pc], #-460	@ 2c0 <_STACK_SIZE+0x1c0>
 488:	672f6269 	strvs	r6, [pc, -r9, ror #4]!
 48c:	612f6363 			@ <UNDEFINED> instruction: 0x612f6363
 490:	6e2d6d72 	mcrvs	13, 1, r6, cr13, cr2, {3}
 494:	2d656e6f 	stclcs	14, cr6, [r5, #-444]!	@ 0xfffffe44
 498:	69626165 	stmdbvs	r2!, {r0, r2, r5, r6, r8, sp, lr}^
 49c:	2e33312f 	rsfcssp	f3, f3, #10.0
 4a0:	2f312e32 	svccs	0x00312e32
 4a4:	6c636e69 	stclvs	14, cr6, [r3], #-420	@ 0xfffffe5c
 4a8:	00656475 	rsbeq	r6, r5, r5, ror r4
 4ac:	2f637273 	svccs	0x00637273
 4b0:	2f717269 	svccs	0x00717269
 4b4:	2e2f2e2e 	cdpcs	14, 2, cr2, cr15, cr14, {1}
 4b8:	6e692f2e 	cdpvs	15, 6, cr2, cr9, cr14, {1}
 4bc:	6b000063 	blvs	650 <_STACK_SIZE+0x550>
 4c0:	656e7265 	strbvs	r7, [lr, #-613]!	@ 0xfffffd9b
 4c4:	61685f6c 	cmnvs	r8, ip, ror #30
 4c8:	656c646e 	strbvs	r6, [ip, #-1134]!	@ 0xfffffb92
 4cc:	72695f72 	rsbvc	r5, r9, #456	@ 0x1c8
 4d0:	00632e71 	rsbeq	r2, r3, r1, ror lr
 4d4:	73000001 	movwvc	r0, #1
 4d8:	6e696474 	mcrvs	4, 3, r6, cr9, cr4, {3}
 4dc:	00682e74 	rsbeq	r2, r8, r4, ror lr
 4e0:	67000002 	strvs	r0, [r0, -r2]
 4e4:	682e6369 	stmdavs	lr!, {r0, r3, r5, r6, r8, r9, sp, lr}
 4e8:	00000300 	andeq	r0, r0, r0, lsl #6
 4ec:	656d6974 	strbvs	r6, [sp, #-2420]!	@ 0xfffff68c
 4f0:	00682e72 	rsbeq	r2, r8, r2, ror lr
 4f4:	73000003 	movwvc	r0, #3
 4f8:	64656863 	strbtvs	r6, [r5], #-2147	@ 0xfffff79d
 4fc:	72656c75 	rsbvc	r6, r5, #29952	@ 0x7500
 500:	0300682e 	movweq	r6, #2094	@ 0x82e
 504:	05000000 	streq	r0, [r0, #-0]
 508:	02050001 	andeq	r0, r5, #1
 50c:	700112bc 			@ <UNDEFINED> instruction: 0x700112bc
 510:	05010e03 	streq	r0, [r1, #-3587]	@ 0xfffff1fd
 514:	2405830f 	strcs	r8, [r5], #-783	@ 0xfffffcf1
 518:	4a0e0567 	bmi	381abc <_STACK_SIZE+0x3819bc>
 51c:	054d2305 	strbeq	r2, [sp, #-773]	@ 0xfffffcfb
 520:	0f054a28 	svceq	0x00054a28
 524:	2e0d052e 	cfsh32cs	mvfx0, mvfx13, #30
 528:	05680505 	strbeq	r0, [r8, #-1285]!	@ 0xfffffafb
 52c:	23056917 	movwcs	r6, #22807	@ 0x5917
 530:	2e100566 	cfmsc32cs	mvfx0, mvfx0, mvfx6
 534:	054b1705 	strbeq	r1, [fp, #-1797]	@ 0xfffff8fb
 538:	1c054a26 			@ <UNDEFINED> instruction: 0x1c054a26
 53c:	4c0d054b 	cfstr32mi	mvfx0, [sp], {75}	@ 0x4b
 540:	09054632 	stmdbeq	r5, {r1, r4, r5, r9, sl, lr}
 544:	66100535 			@ <UNDEFINED> instruction: 0x66100535
 548:	05680c05 	strbeq	r0, [r8, #-3077]!	@ 0xfffff3fb
 54c:	06022f01 	streq	r2, [r2], -r1, lsl #30
 550:	c8010100 	stmdagt	r1, {r8}
 554:	03000000 	movweq	r0, #0
 558:	00008e00 	andeq	r8, r0, r0, lsl #28
 55c:	fb010200 	blx	40d66 <_STACK_SIZE+0x40c66>
 560:	01000d0e 	tsteq	r0, lr, lsl #26
 564:	00010101 	andeq	r0, r1, r1, lsl #2
 568:	00010000 	andeq	r0, r1, r0
 56c:	72730100 	rsbsvc	r0, r3, #0, 2
 570:	72692f63 	rsbvc	r2, r9, #396	@ 0x18c
 574:	752f0071 	strvc	r0, [pc, #-113]!	@ 50b <_STACK_SIZE+0x40b>
 578:	6c2f7273 	sfmvs	f7, 4, [pc], #-460	@ 3b4 <_STACK_SIZE+0x2b4>
 57c:	672f6269 	strvs	r6, [pc, -r9, ror #4]!
 580:	612f6363 			@ <UNDEFINED> instruction: 0x612f6363
 584:	6e2d6d72 	mcrvs	13, 1, r6, cr13, cr2, {3}
 588:	2d656e6f 	stclcs	14, cr6, [r5, #-444]!	@ 0xfffffe44
 58c:	69626165 	stmdbvs	r2!, {r0, r2, r5, r6, r8, sp, lr}^
 590:	2e33312f 	rsfcssp	f3, f3, #10.0
 594:	2f312e32 	svccs	0x00312e32
 598:	6c636e69 	stclvs	14, cr6, [r3], #-420	@ 0xfffffe5c
 59c:	00656475 	rsbeq	r6, r5, r5, ror r4
 5a0:	2f637273 	svccs	0x00637273
 5a4:	2f717269 	svccs	0x00717269
 5a8:	2e2f2e2e 	cdpcs	14, 2, cr2, cr15, cr14, {1}
 5ac:	6e692f2e 	cdpvs	15, 6, cr2, cr9, cr14, {1}
 5b0:	6b000063 	blvs	744 <_STACK_SIZE+0x644>
 5b4:	656e7265 	strbvs	r7, [lr, #-613]!	@ 0xfffffd9b
 5b8:	61685f6c 	cmnvs	r8, ip, ror #30
 5bc:	656c646e 	strbvs	r6, [ip, #-1134]!	@ 0xfffffb92
 5c0:	77735f72 			@ <UNDEFINED> instruction: 0x77735f72
 5c4:	00632e69 	rsbeq	r2, r3, r9, ror #28
 5c8:	73000001 	movwvc	r0, #1
 5cc:	6e696474 	mcrvs	4, 3, r6, cr9, cr4, {3}
 5d0:	00682e74 	rsbeq	r2, r8, r4, ror lr
 5d4:	63000002 	movwvs	r0, #2
 5d8:	6f736e6f 	svcvs	0x00736e6f
 5dc:	755f656c 	ldrbvc	r6, [pc, #-1388]	@ 78 <SYS_MODE+0x59>
 5e0:	736c6974 	cmnvc	ip, #116, 18	@ 0x1d0000
 5e4:	0300682e 	movweq	r6, #2094	@ 0x82e
 5e8:	05000000 	streq	r0, [r0, #-0]
 5ec:	02050027 	andeq	r0, r5, #39	@ 0x27
 5f0:	70010f08 	andvc	r0, r1, r8, lsl #30
 5f4:	05010903 	streq	r0, [r1, #-2307]	@ 0xfffff6fd
 5f8:	0f058522 	svceq	0x00058522
 5fc:	2f0e0566 	svccs	0x000e0566
 600:	69050567 	stmdbvs	r5, {r0, r1, r2, r5, r6, r8, sl}
 604:	05da3305 	ldrbeq	r3, [sl, #773]	@ 0x305
 608:	0d054a19 	vstreq	s8, [r5, #-100]	@ 0xffffff9c
 60c:	16058331 			@ <UNDEFINED> instruction: 0x16058331
 610:	6a0d0534 	bvs	341ae8 <_STACK_SIZE+0x3419e8>
 614:	05833383 	streq	r3, [r3, #899]	@ 0x383
 618:	06023001 	streq	r3, [r2], -r1
 61c:	68010100 	stmdavs	r1, {r8}
 620:	03000001 	movweq	r0, #1
 624:	00009100 	andeq	r9, r0, r0, lsl #2
 628:	fb010200 	blx	40e32 <_STACK_SIZE+0x40d32>
 62c:	01000d0e 	tsteq	r0, lr, lsl #26
 630:	00010101 	andeq	r0, r1, r1, lsl #2
 634:	00010000 	andeq	r0, r1, r0
 638:	72730100 	rsbsvc	r0, r3, #0, 2
 63c:	61742f63 	cmnvs	r4, r3, ror #30
 640:	00736b73 	rsbseq	r6, r3, r3, ror fp
 644:	2f637273 	svccs	0x00637273
 648:	6b736174 	blvs	1cd8c20 <_STACK_SIZE+0x1cd8b20>
 64c:	2e2e2f73 	mcrcs	15, 1, r2, cr14, cr3, {3}
 650:	2f2e2e2f 	svccs	0x002e2e2f
 654:	00636e69 	rsbeq	r6, r3, r9, ror #28
 658:	7273752f 	rsbsvc	r7, r3, #197132288	@ 0xbc00000
 65c:	62696c2f 	rsbvs	r6, r9, #12032	@ 0x2f00
 660:	6363672f 	cmnvs	r3, #12320768	@ 0xbc0000
 664:	6d72612f 	ldfvse	f6, [r2, #-188]!	@ 0xffffff44
 668:	6e6f6e2d 	cdpvs	14, 6, cr6, cr15, cr13, {1}
 66c:	61652d65 	cmnvs	r5, r5, ror #26
 670:	312f6962 			@ <UNDEFINED> instruction: 0x312f6962
 674:	2e322e33 	mrccs	14, 1, r2, cr2, cr3, {1}
 678:	6e692f31 	mcrvs	15, 3, r2, cr9, cr1, {1}
 67c:	64756c63 	ldrbtvs	r6, [r5], #-3171	@ 0xfffff39d
 680:	73000065 	movwvc	r0, #101	@ 0x65
 684:	64656863 	strbtvs	r6, [r5], #-2147	@ 0xfffff79d
 688:	72656c75 	rsbvc	r6, r5, #29952	@ 0x7500
 68c:	0100632e 	tsteq	r0, lr, lsr #6
 690:	63730000 	cmnvs	r3, #0
 694:	75646568 	strbvc	r6, [r4, #-1384]!	@ 0xfffffa98
 698:	2e72656c 	cdpcs	5, 7, cr6, cr2, cr12, {3}
 69c:	00020068 	andeq	r0, r2, r8, rrx
 6a0:	72617400 	rsbvc	r7, r1, #0, 8
 6a4:	2e736165 	rpwcssz	f6, f3, f5
 6a8:	00020068 	andeq	r0, r2, r8, rrx
 6ac:	64747300 	ldrbtvs	r7, [r4], #-768	@ 0xfffffd00
 6b0:	2e746e69 	cdpcs	14, 7, cr6, cr4, cr9, {3}
 6b4:	00030068 	andeq	r0, r3, r8, rrx
 6b8:	43050000 	movwmi	r0, #20480	@ 0x5000
 6bc:	bc020500 	cfstr32lt	mvfx0, [r2], {-0}
 6c0:	0370010f 	cmneq	r0, #-1073741821	@ 0xc0000003
 6c4:	0f05012f 	svceq	0x0005012f
 6c8:	690d05a0 	stmdbvs	sp, {r5, r7, r8, sl}
 6cc:	660f05bd 			@ <UNDEFINED> instruction: 0x660f05bd
 6d0:	052e0d05 	streq	r0, [lr, #-3333]!	@ 0xfffff2fb
 6d4:	05054d0c 	streq	r4, [r5, #-3340]	@ 0xfffff2f4
 6d8:	2f11054a 	svccs	0x0011054a
 6dc:	02001a05 	andeq	r1, r0, #20480	@ 0x5000
 6e0:	05b90304 	ldreq	r0, [r9, #772]!	@ 0x304
 6e4:	04020013 	streq	r0, [r2], #-19	@ 0xffffffed
 6e8:	07056601 	streq	r6, [r5, -r1, lsl #12]
 6ec:	670b056c 	strvs	r0, [fp, -ip, ror #10]
 6f0:	052e0905 	streq	r0, [lr, #-2309]!	@ 0xfffff6fb
 6f4:	01054e11 	tsteq	r5, r1, lsl lr
 6f8:	00080267 	andeq	r0, r8, r7, ror #4
 6fc:	01050101 	tsteq	r5, r1, lsl #2
 700:	88020500 	stmdahi	r2, {r8, sl}
 704:	03700107 	cmneq	r0, #-1073741823	@ 0xc0000001
 708:	050100ca 	streq	r0, [r1, #-202]	@ 0xffffff36
 70c:	05056713 	streq	r6, [r5, #-1811]	@ 0xfffff8ed
 710:	2f1a054a 	svccs	0x001a054a
 714:	05d72905 	ldrbeq	r2, [r7, #2309]	@ 0x905
 718:	2e05821d 	mcrcs	2, 0, r8, cr5, cr13, {0}
 71c:	821e05bb 	andshi	r0, lr, #784334848	@ 0x2ec00000
 720:	05bb2e05 	ldreq	r2, [fp, #3589]!	@ 0xe05
 724:	0905821e 	stmdbeq	r5, {r1, r2, r3, r4, r9, pc}
 728:	002c0585 	eoreq	r0, ip, r5, lsl #11
 72c:	03030402 	movweq	r0, #13314	@ 0x3402
 730:	05580879 	ldrbeq	r0, [r8, #-2169]	@ 0xfffff787
 734:	0402001c 	streq	r0, [r2], #-28	@ 0xffffffe4
 738:	01056601 	tsteq	r5, r1, lsl #12
 73c:	05660903 	strbeq	r0, [r6, #-2307]!	@ 0xfffff6fd
 740:	0a05861d 	beq	161fbc <_STACK_SIZE+0x161ebc>
 744:	d80e0567 	stmdale	lr, {r0, r1, r2, r5, r6, r8, sl}
 748:	05842a05 	streq	r2, [r4, #2565]	@ 0xa05
 74c:	0805ba0f 	stmdaeq	r5, {r0, r1, r2, r3, r9, fp, ip, sp, pc}
 750:	4b0f0566 	blmi	3c1cf0 <_STACK_SIZE+0x3c1bf0>
 754:	05852f05 	streq	r2, [r5, #3845]	@ 0xf05
 758:	38058234 	stmdacc	r5, {r2, r4, r5, r9, pc}
 75c:	9e15052e 	cfmul64ls	mvdx0, mvdx5, mvdx14
 760:	056a2905 	strbeq	r2, [sl, #-2309]!	@ 0xfffff6fb
 764:	2f230809 	svccs	0x00230809
 768:	05a14105 	streq	r4, [r1, #261]!	@ 0x105
 76c:	3331ba09 	teqcc	r1, #36864	@ 0x9000
 770:	05660805 	strbeq	r0, [r6, #-2053]!	@ 0xfffff7fb
 774:	09054b10 	stmdbeq	r5, {r4, r8, r9, fp, lr}
 778:	2f420585 	svccs	0x00420585
 77c:	31820905 	orrcc	r0, r2, r5, lsl #18
 780:	05312305 	ldreq	r2, [r1, #-773]!	@ 0xfffffcfb
 784:	0802f301 	stmdaeq	r2, {r0, r8, r9, ip, sp, lr, pc}
 788:	83010100 	movwhi	r0, #4352	@ 0x1100
 78c:	03000000 	movweq	r0, #0
 790:	00005f00 	andeq	r5, r0, r0, lsl #30
 794:	fb010200 	blx	40f9e <_STACK_SIZE+0x40e9e>
 798:	01000d0e 	tsteq	r0, lr, lsl #26
 79c:	00010101 	andeq	r0, r1, r1, lsl #2
 7a0:	00010000 	andeq	r0, r1, r0
 7a4:	72730100 	rsbsvc	r0, r3, #0, 2
 7a8:	72692f63 	rsbvc	r2, r9, #396	@ 0x18c
 7ac:	752f0071 	strvc	r0, [pc, #-113]!	@ 743 <_STACK_SIZE+0x643>
 7b0:	6c2f7273 	sfmvs	f7, 4, [pc], #-460	@ 5ec <_STACK_SIZE+0x4ec>
 7b4:	672f6269 	strvs	r6, [pc, -r9, ror #4]!
 7b8:	612f6363 			@ <UNDEFINED> instruction: 0x612f6363
 7bc:	6e2d6d72 	mcrvs	13, 1, r6, cr13, cr2, {3}
 7c0:	2d656e6f 	stclcs	14, cr6, [r5, #-444]!	@ 0xfffffe44
 7c4:	69626165 	stmdbvs	r2!, {r0, r2, r5, r6, r8, sp, lr}^
 7c8:	2e33312f 	rsfcssp	f3, f3, #10.0
 7cc:	2f312e32 	svccs	0x00312e32
 7d0:	6c636e69 	stclvs	14, cr6, [r3], #-420	@ 0xfffffe5c
 7d4:	00656475 	rsbeq	r6, r5, r5, ror r4
 7d8:	73797300 	cmnvc	r9, #0, 6
 7dc:	6c6c6163 	stfvse	f6, [ip], #-396	@ 0xfffffe74
 7e0:	00632e73 	rsbeq	r2, r3, r3, ror lr
 7e4:	73000001 	movwvc	r0, #1
 7e8:	6e696474 	mcrvs	4, 3, r6, cr9, cr4, {3}
 7ec:	00682e74 	rsbeq	r2, r8, r4, ror lr
 7f0:	00000002 	andeq	r0, r0, r2
 7f4:	05002c05 	streq	r2, [r0, #-3077]	@ 0xfffff3fb
 7f8:	01107c02 	tsteq	r0, r2, lsl #24
 7fc:	05051570 	streq	r1, [r5, #-1392]	@ 0xfffffa90
 800:	6d010583 	cfstr32vs	mvfx0, [r1, #-524]	@ 0xfffffdf4
 804:	05852505 	streq	r2, [r5, #1285]	@ 0x505
 808:	01058305 	tsteq	r5, r5, lsl #6
 80c:	0008026d 	andeq	r0, r8, sp, ror #4
 810:	01600101 	cmneq	r0, r1, lsl #2
 814:	00030000 	andeq	r0, r3, r0
 818:	00000081 	andeq	r0, r0, r1, lsl #1
 81c:	0efb0102 	cdpeq	1, 15, cr0, cr11, cr2, {0}
 820:	0101000d 	tsteq	r1, sp
 824:	00000101 	andeq	r0, r0, r1, lsl #2
 828:	00000100 	andeq	r0, r0, r0, lsl #2
 82c:	63727301 	cmnvs	r2, #67108864	@ 0x4000000
 830:	7361742f 	cmnvc	r1, #788529152	@ 0x2f000000
 834:	7300736b 	movwvc	r7, #875	@ 0x36b
 838:	742f6372 	strtvc	r6, [pc], #-882	@ 840 <_STACK_SIZE+0x740>
 83c:	736b7361 	cmnvc	fp, #-2080374783	@ 0x84000001
 840:	2f2e2e2f 	svccs	0x002e2e2f
 844:	692f2e2e 	stmdbvs	pc!, {r1, r2, r3, r5, r9, sl, fp, sp}	@ <UNPREDICTABLE>
 848:	2f00636e 	svccs	0x0000636e
 84c:	2f727375 	svccs	0x00727375
 850:	2f62696c 	svccs	0x0062696c
 854:	2f636367 	svccs	0x00636367
 858:	2d6d7261 	sfmcs	f7, 2, [sp, #-388]!	@ 0xfffffe7c
 85c:	656e6f6e 	strbvs	r6, [lr, #-3950]!	@ 0xfffff092
 860:	6261652d 	rsbvs	r6, r1, #188743680	@ 0xb400000
 864:	33312f69 	teqcc	r1, #420	@ 0x1a4
 868:	312e322e 			@ <UNDEFINED> instruction: 0x312e322e
 86c:	636e692f 	cmnvs	lr, #770048	@ 0xbc000
 870:	6564756c 	strbvs	r7, [r4, #-1388]!	@ 0xfffffa94
 874:	61740000 	cmnvs	r4, r0
 878:	73616572 	cmnvc	r1, #478150656	@ 0x1c800000
 87c:	0100632e 	tsteq	r0, lr, lsr #6
 880:	79730000 	ldmdbvc	r3!, {}^	@ <UNPREDICTABLE>
 884:	6c616373 	stclvs	3, cr6, [r1], #-460	@ 0xfffffe34
 888:	682e736c 	stmdavs	lr!, {r2, r3, r5, r6, r8, r9, ip, sp, lr}
 88c:	00000200 	andeq	r0, r0, r0, lsl #4
 890:	69647473 	stmdbvs	r4!, {r0, r1, r4, r5, r6, sl, ip, sp, lr}^
 894:	682e746e 	stmdavs	lr!, {r1, r2, r3, r5, r6, sl, ip, sp, lr}
 898:	00000300 	andeq	r0, r0, r0, lsl #6
 89c:	00430500 	subeq	r0, r3, r0, lsl #10
 8a0:	13780205 	cmnne	r8, #1342177280	@ 0x50000000
 8a4:	05177001 	ldreq	r7, [r7, #-1]
 8a8:	04020009 	streq	r0, [r2], #-9
 8ac:	04024d01 	streq	r4, [r2], #-3329	@ 0xfffff2ff
 8b0:	05010100 	streq	r0, [r1, #-256]	@ 0xffffff00
 8b4:	0205003d 	andeq	r0, r5, #61	@ 0x3d
 8b8:	70011388 	andvc	r1, r1, r8, lsl #7
 8bc:	05011203 	streq	r1, [r1, #-515]	@ 0xfffffdfd
 8c0:	1505670e 	strne	r6, [r5, #-1806]	@ 0xfffff8f2
 8c4:	4c05054a 	cfstr32mi	mvfx0, [r5], {74}	@ 0x4a
 8c8:	05680e05 	strbeq	r0, [r8, #-3589]!	@ 0xfffff1fb
 8cc:	09054a05 	stmdbeq	r5, {r0, r2, r9, fp, lr}
 8d0:	12054b2f 	andne	r4, r5, #48128	@ 0xbc00
 8d4:	830b0568 	movwhi	r0, #46440	@ 0xb568
 8d8:	001e054b 	andseq	r0, lr, fp, asr #10
 8dc:	03030402 	movweq	r0, #13314	@ 0x3402
 8e0:	17054a7a 	smlsdxne	r5, sl, sl, r4
 8e4:	01040200 	mrseq	r0, R12_usr
 8e8:	00090566 	andeq	r0, r9, r6, ror #10
 8ec:	03010402 	movweq	r0, #5122	@ 0x1402
 8f0:	0402660b 	streq	r6, [r2], #-1547	@ 0xfffff9f5
 8f4:	05010100 	streq	r0, [r1, #-256]	@ 0xffffff00
 8f8:	0205003d 	andeq	r0, r5, #61	@ 0x3d
 8fc:	70011410 	andvc	r1, r1, r0, lsl r4
 900:	05012d03 	streq	r2, [r1, #-3331]	@ 0xfffff2fd
 904:	0505680e 	streq	r6, [r5, #-2062]	@ 0xfffff7f2
 908:	0b05694d 	bleq	15ae44 <_STACK_SIZE+0x15ad44>
 90c:	2f0f054c 	svccs	0x000f054c
 910:	054a0c05 	strbeq	r0, [sl, #-3077]	@ 0xfffff3fb
 914:	13054c0f 	movwne	r4, #23567	@ 0x5c0f
 918:	820f0585 	andhi	r0, pc, #557842432	@ 0x21400000
 91c:	674d0905 	strbvs	r0, [sp, -r5, lsl #18]
 920:	76030e05 	strvc	r0, [r3], -r5, lsl #28
 924:	0305054a 	movweq	r0, #21834	@ 0x554a
 928:	0905660e 	stmdbeq	r5, {r1, r2, r3, r9, sl, sp, lr}
 92c:	01040200 	mrseq	r0, R12_usr
 930:	0004026a 	andeq	r0, r4, sl, ror #4
 934:	3d050101 	stfccs	f0, [r5, #-4]
 938:	a8020500 	stmdage	r2, {r8, sl}
 93c:	03700114 	cmneq	r0, #20, 2
 940:	050100d2 	streq	r0, [r1, #-210]	@ 0xffffff2e
 944:	4b4b680e 	blmi	12da984 <_STACK_SIZE+0x12da884>
 948:	674d0505 	strbvs	r0, [sp, -r5, lsl #10]
 94c:	680b054b 	stmdavs	fp, {r0, r1, r3, r6, r8, sl}
 950:	052f0f05 	streq	r0, [pc, #-3845]!	@ fffffa53 <__system_stack_tasks_end__+0x8ffdec53>
 954:	0d059e0c 	stceq	14, cr9, [r5, #-48]	@ 0xffffffd0
 958:	0f054b4c 	svceq	0x00054b4c
 95c:	bd140569 	cfldr32lt	mvfx0, [r4, #-420]	@ 0xfffffe5c
 960:	76030e05 	strvc	r0, [r3], -r5, lsl #28
 964:	03050566 	movweq	r0, #21862	@ 0x5566
 968:	0905660f 	stmdbeq	r5, {r0, r1, r2, r3, r9, sl, sp, lr}
 96c:	01040200 	mrseq	r0, R12_usr
 970:	0004026a 	andeq	r0, r4, sl, ror #4
 974:	00ae0101 	adceq	r0, lr, r1, lsl #2
 978:	00030000 	andeq	r0, r3, r0
 97c:	0000007d 	andeq	r0, r0, sp, ror r0
 980:	0efb0102 	cdpeq	1, 15, cr0, cr11, cr2, {0}
 984:	0101000d 	tsteq	r1, sp
 988:	00000101 	andeq	r0, r0, r1, lsl #2
 98c:	00000100 	andeq	r0, r0, r0, lsl #2
 990:	63727301 	cmnvs	r2, #67108864	@ 0x4000000
 994:	616f622f 	cmnvs	pc, pc, lsr #4
 998:	2f006472 	svccs	0x00006472
 99c:	2f727375 	svccs	0x00727375
 9a0:	2f62696c 	svccs	0x0062696c
 9a4:	2f636367 	svccs	0x00636367
 9a8:	2d6d7261 	sfmcs	f7, 2, [sp, #-388]!	@ 0xfffffe7c
 9ac:	656e6f6e 	strbvs	r6, [lr, #-3950]!	@ 0xfffff092
 9b0:	6261652d 	rsbvs	r6, r1, #188743680	@ 0xb400000
 9b4:	33312f69 	teqcc	r1, #420	@ 0x1a4
 9b8:	312e322e 			@ <UNDEFINED> instruction: 0x312e322e
 9bc:	636e692f 	cmnvs	lr, #770048	@ 0xbc000
 9c0:	6564756c 	strbvs	r7, [r4, #-1388]!	@ 0xfffffa94
 9c4:	63727300 	cmnvs	r2, #0, 6
 9c8:	616f622f 	cmnvs	pc, pc, lsr #4
 9cc:	2e2f6472 	mcrcs	4, 1, r6, cr15, cr2, {3}
 9d0:	2e2e2f2e 	cdpcs	15, 2, cr2, cr14, cr14, {1}
 9d4:	636e692f 	cmnvs	lr, #770048	@ 0xbc000
 9d8:	69740000 	ldmdbvs	r4!, {}^	@ <UNPREDICTABLE>
 9dc:	2e72656d 	cdpcs	5, 7, cr6, cr2, cr13, {3}
 9e0:	00010063 	andeq	r0, r1, r3, rrx
 9e4:	64747300 	ldrbtvs	r7, [r4], #-768	@ 0xfffffd00
 9e8:	2e746e69 	cdpcs	14, 7, cr6, cr4, cr9, {3}
 9ec:	00020068 	andeq	r0, r2, r8, rrx
 9f0:	6d697400 	cfstrdvs	mvd7, [r9, #-0]
 9f4:	682e7265 	stmdavs	lr!, {r0, r2, r5, r6, r9, ip, sp, lr}
 9f8:	00000300 	andeq	r0, r0, r0, lsl #6
 9fc:	003e0500 	eorseq	r0, lr, r0, lsl #10
 a00:	09f40205 	ldmibeq	r4!, {r0, r2, r9}^
 a04:	05177001 	ldreq	r7, [r7, #-1]
 a08:	20056719 	andcs	r6, r5, r9, lsl r7
 a0c:	0f056768 	svceq	0x00056768
 a10:	4a1f0567 	bmi	7c1fb4 <_STACK_SIZE+0x7c1eb4>
 a14:	05670f05 	strbeq	r0, [r7, #-3845]!	@ 0xfffff0fb
 a18:	0f054a1f 	svceq	0x00054a1f
 a1c:	4a1f0567 	bmi	7c1fc0 <_STACK_SIZE+0x7c1ec0>
 a20:	02670505 	rsbeq	r0, r7, #20971520	@ 0x1400000
 a24:	01010008 	tsteq	r1, r8
 a28:	00000200 	andeq	r0, r0, r0, lsl #4
 a2c:	007b0003 	rsbseq	r0, fp, r3
 a30:	01020000 	mrseq	r0, (UNDEF: 2)
 a34:	000d0efb 	strdeq	r0, [sp], -fp
 a38:	01010101 	tsteq	r1, r1, lsl #2
 a3c:	01000000 	mrseq	r0, (UNDEF: 0)
 a40:	73010000 	movwvc	r0, #4096	@ 0x1000
 a44:	622f6372 	eorvs	r6, pc, #-939524095	@ 0xc8000001
 a48:	6472616f 	ldrbtvs	r6, [r2], #-367	@ 0xfffffe91
 a4c:	73752f00 	cmnvc	r5, #0, 30
 a50:	696c2f72 	stmdbvs	ip!, {r1, r4, r5, r6, r8, r9, sl, fp, sp}^
 a54:	63672f62 	cmnvs	r7, #392	@ 0x188
 a58:	72612f63 	rsbvc	r2, r1, #396	@ 0x18c
 a5c:	6f6e2d6d 	svcvs	0x006e2d6d
 a60:	652d656e 	strvs	r6, [sp, #-1390]!	@ 0xfffffa92
 a64:	2f696261 	svccs	0x00696261
 a68:	322e3331 	eorcc	r3, lr, #-1006632960	@ 0xc4000000
 a6c:	692f312e 	stmdbvs	pc!, {r1, r2, r3, r5, r8, ip, sp}	@ <UNPREDICTABLE>
 a70:	756c636e 	strbvc	r6, [ip, #-878]!	@ 0xfffffc92
 a74:	73006564 	movwvc	r6, #1380	@ 0x564
 a78:	622f6372 	eorvs	r6, pc, #-939524095	@ 0xc8000001
 a7c:	6472616f 	ldrbtvs	r6, [r2], #-367	@ 0xfffffe91
 a80:	2f2e2e2f 	svccs	0x002e2e2f
 a84:	692f2e2e 	stmdbvs	pc!, {r1, r2, r3, r5, r9, sl, fp, sp}	@ <UNPREDICTABLE>
 a88:	0000636e 	andeq	r6, r0, lr, ror #6
 a8c:	74726175 	ldrbtvc	r6, [r2], #-373	@ 0xfffffe8b
 a90:	0100632e 	tsteq	r0, lr, lsr #6
 a94:	74730000 	ldrbtvc	r0, [r3], #-0
 a98:	746e6964 	strbtvc	r6, [lr], #-2404	@ 0xfffff69c
 a9c:	0200682e 	andeq	r6, r0, #3014656	@ 0x2e0000
 aa0:	61750000 	cmnvs	r5, r0
 aa4:	682e7472 	stmdavs	lr!, {r1, r4, r5, r6, sl, ip, sp, lr}
 aa8:	00000300 	andeq	r0, r0, r0, lsl #6
 aac:	00510500 	subseq	r0, r1, r0, lsl #10
 ab0:	0a700205 	beq	1c012cc <_STACK_SIZE+0x1c011cc>
 ab4:	0c037001 	stceq	0, cr7, [r3], {1}
 ab8:	9f120501 	svcls	0x00120501
 abc:	054b1105 	strbeq	r1, [fp, #-261]	@ 0xfffffefb
 ac0:	09054a2b 	stmdbeq	r5, {r0, r1, r3, r5, r9, fp, lr}
 ac4:	f516054c 			@ <UNDEFINED> instruction: 0xf516054c
 ac8:	05672605 	strbeq	r2, [r7, #-1541]!	@ 0xfffff9fb
 acc:	11054b1a 	tstne	r5, sl, lsl fp
 ad0:	3016054b 	andscc	r0, r6, fp, asr #10
 ad4:	05672605 	strbeq	r2, [r7, #-1541]!	@ 0xfffff9fb
 ad8:	16054b11 			@ <UNDEFINED> instruction: 0x16054b11
 adc:	67260530 			@ <UNDEFINED> instruction: 0x67260530
 ae0:	054b1105 	strbeq	r1, [fp, #-261]	@ 0xfffffefb
 ae4:	26053016 			@ <UNDEFINED> instruction: 0x26053016
 ae8:	4b110567 	blmi	44208c <_STACK_SIZE+0x441f8c>
 aec:	05302605 	ldreq	r2, [r0, #-1541]!	@ 0xfffff9fb
 af0:	0c054b11 			@ <UNDEFINED> instruction: 0x0c054b11
 af4:	68120531 	ldmdavs	r2, {r0, r4, r5, r8, sl}
 af8:	05681705 	strbeq	r1, [r8, #-1797]!	@ 0xfffff8fb
 afc:	18054a1e 	stmdane	r5, {r1, r2, r3, r4, r9, fp, lr}
 b00:	69100568 	ldmdbvs	r0, {r3, r5, r6, r8, sl}
 b04:	052f0505 	streq	r0, [pc, #-1285]!	@ 607 <_STACK_SIZE+0x507>
 b08:	0d05853e 	cfstr32eq	mvfx8, [r5, #-248]	@ 0xffffff08
 b0c:	001c059f 	mulseq	ip, pc, r5	@ <UNPREDICTABLE>
 b10:	66010402 	strvs	r0, [r1], -r2, lsl #8
 b14:	05671305 	strbeq	r1, [r7, #-773]!	@ 0xfffffcfb
 b18:	1c05680d 	stcne	8, cr6, [r5], {13}
 b1c:	01040200 	mrseq	r0, R12_usr
 b20:	67130566 	ldrvs	r0, [r3, -r6, ror #10]
 b24:	05680d05 	strbeq	r0, [r8, #-3333]!	@ 0xfffff2fb
 b28:	0402001c 	streq	r0, [r2], #-28	@ 0xffffffe4
 b2c:	13056601 	movwne	r6, #22017	@ 0x5601
 b30:	690c0567 	stmdbvs	ip, {r0, r1, r2, r5, r6, r8, sl}
 b34:	052f0305 	streq	r0, [pc, #-773]!	@ 837 <_STACK_SIZE+0x737>
 b38:	0805843e 	stmdaeq	r5, {r1, r2, r3, r4, r5, sl, pc}
 b3c:	00160583 	andseq	r0, r6, r3, lsl #11
 b40:	66010402 	strvs	r0, [r1], -r2, lsl #8
 b44:	05681405 	strbeq	r1, [r8, #-1029]!	@ 0xfffffbfb
 b48:	1a05a00c 	bne	168b80 <_STACK_SIZE+0x168a80>
 b4c:	01040200 	mrseq	r0, R12_usr
 b50:	68140566 	ldmdavs	r4, {r1, r2, r5, r6, r8, sl}
 b54:	05a10c05 	streq	r0, [r1, #3077]!	@ 0xc05
 b58:	52052f03 	andpl	r2, r5, #3, 30
 b5c:	bb0a0584 	bllt	282174 <_STACK_SIZE+0x282074>
 b60:	02000d05 	andeq	r0, r0, #320	@ 0x140
 b64:	052e0104 	streq	r0, [lr, #-260]!	@ 0xfffffefc
 b68:	04020012 	streq	r0, [r2], #-18	@ 0xffffffee
 b6c:	0c054a01 			@ <UNDEFINED> instruction: 0x0c054a01
 b70:	01040200 	mrseq	r0, R12_usr
 b74:	4f0b052e 	svcmi	0x000b052e
 b78:	05670305 	strbeq	r0, [r7, #-773]!	@ 0xfffffcfb
 b7c:	0a05844a 	beq	161cac <_STACK_SIZE+0x161bac>
 b80:	000d0583 	andeq	r0, sp, r3, lsl #11
 b84:	2e010402 	cdpcs	4, 0, cr0, cr1, cr2, {0}
 b88:	02001205 	andeq	r1, r0, #1342177280	@ 0x50000000
 b8c:	054a0104 	strbeq	r0, [sl, #-260]	@ 0xfffffefc
 b90:	0402000c 	streq	r0, [r2], #-12
 b94:	0d052e01 	stceq	14, cr2, [r5, #-4]
 b98:	6703054f 	strvs	r0, [r3, -pc, asr #10]
 b9c:	05845205 	streq	r5, [r4, #517]	@ 0x205
 ba0:	0505bb13 	streq	fp, [r5, #-2835]	@ 0xfffff4ed
 ba4:	01040200 	mrseq	r0, R12_usr
 ba8:	671d05d6 			@ <UNDEFINED> instruction: 0x671d05d6
 bac:	052e1305 	streq	r1, [lr, #-773]!	@ 0xfffffcfb
 bb0:	04020005 	streq	r0, [r2], #-5
 bb4:	03058201 	movweq	r8, #20993	@ 0x5201
 bb8:	684a0567 	stmdavs	sl, {r0, r1, r2, r5, r6, r8, sl}^
 bbc:	05831a05 	streq	r1, [r3, #2565]	@ 0xa05
 bc0:	04020014 	streq	r0, [r2], #-20	@ 0xffffffec
 bc4:	2b056601 	blcs	15a3d0 <_STACK_SIZE+0x15a2d0>
 bc8:	02040200 	andeq	r0, r4, #0, 4
 bcc:	000d0566 	andeq	r0, sp, r6, ror #10
 bd0:	2e020402 	cdpcs	4, 0, cr0, cr2, cr2, {0}
 bd4:	054b1a05 	strbeq	r1, [fp, #-2565]	@ 0xfffff5fb
 bd8:	0402002b 	streq	r0, [r2], #-43	@ 0xffffffd5
 bdc:	0f056601 	svceq	0x00056601
 be0:	02040200 	andeq	r0, r4, #0, 4
 be4:	a00c0566 	andge	r0, ip, r6, ror #10
 be8:	052f0305 	streq	r0, [pc, #-773]!	@ 8eb <_STACK_SIZE+0x7eb>
 bec:	10056841 	andne	r6, r5, r1, asr #16
 bf0:	670c0583 	strvs	r0, [ip, -r3, lsl #11]
 bf4:	05300b05 	ldreq	r0, [r0, #-2821]!	@ 0xfffff4fb
 bf8:	0d059f0c 	stceq	15, cr9, [r5, #-48]	@ 0xffffffd0
 bfc:	4a100563 	bmi	402190 <_STACK_SIZE+0x402090>
 c00:	054f0305 	strbeq	r0, [pc, #-773]	@ 903 <_STACK_SIZE+0x803>
 c04:	10058458 	andne	r8, r5, r8, asr r4
 c08:	0d0567bb 	stceq	7, cr6, [r5, #-748]	@ 0xfffffd14
 c0c:	4a07054b 	bmi	1c2140 <_STACK_SIZE+0x1c2040>
 c10:	05302b05 	ldreq	r2, [r0, #-2821]!	@ 0xfffff4fb
 c14:	1c05660b 	stcne	6, cr6, [r5], {11}
 c18:	03040200 	movweq	r0, #16896	@ 0x4200
 c1c:	00140580 	andseq	r0, r4, r0, lsl #11
 c20:	66010402 	strvs	r0, [r1], -r2, lsl #8
 c24:	02860305 	addeq	r0, r6, #335544320	@ 0x14000000
 c28:	01010008 	tsteq	r1, r8
 c2c:	00000063 	andeq	r0, r0, r3, rrx
 c30:	00040005 	andeq	r0, r4, r5
 c34:	0000002e 	andeq	r0, r0, lr, lsr #32
 c38:	fb010102 	blx	4104a <_STACK_SIZE+0x40f4a>
 c3c:	01000d0e 	tsteq	r0, lr, lsl #26
 c40:	00010101 	andeq	r0, r1, r1, lsl #2
 c44:	00010000 	andeq	r0, r1, r0
 c48:	01010100 	mrseq	r0, (UNDEF: 17)
 c4c:	0000021f 	andeq	r0, r0, pc, lsl r2
 c50:	00570000 	subseq	r0, r7, r0
 c54:	01020000 	mrseq	r0, (UNDEF: 2)
 c58:	020f021f 	andeq	r0, pc, #-268435455	@ 0xf0000001
 c5c:	00000072 	andeq	r0, r0, r2, ror r0
 c60:	00007201 	andeq	r7, r0, r1, lsl #4
 c64:	05000100 	streq	r0, [r0, #-256]	@ 0xffffff00
 c68:	0110d402 	tsteq	r0, r2, lsl #8
 c6c:	08cf0370 	stmiaeq	pc, {r4, r5, r6, r8, r9}^	@ <UNPREDICTABLE>
 c70:	2f2f3001 	svccs	0x002f3001
 c74:	302f2f2f 	eorcc	r2, pc, pc, lsr #30
 c78:	2f143e02 	svccs	0x00143e02
 c7c:	302f2f31 	eorcc	r2, pc, r1, lsr pc	@ <UNPREDICTABLE>
 c80:	322f9208 	eorcc	r9, pc, #8, 4	@ 0x80000000
 c84:	2f661f03 	svccs	0x00661f03
 c88:	2f2f2f2f 	svccs	0x002f2f2f
 c8c:	02022f2f 	andeq	r2, r2, #47, 30	@ 0xbc
 c90:	46010100 	strmi	r0, [r1], -r0, lsl #2
 c94:	05000000 	streq	r0, [r0, #-0]
 c98:	2e000400 	cfcpyscs	mvf0, mvf0
 c9c:	02000000 	andeq	r0, r0, #0
 ca0:	0efb0101 	cdpeq	1, 15, cr0, cr11, cr1, {0}
 ca4:	0101000d 	tsteq	r1, sp
 ca8:	00000101 	andeq	r0, r0, r1, lsl #2
 cac:	00000100 	andeq	r0, r0, r0, lsl #2
 cb0:	1f010101 	svcne	0x00010101
 cb4:	00000002 	andeq	r0, r0, r2
 cb8:	00005700 	andeq	r5, r0, r0, lsl #14
 cbc:	1f010200 	svcne	0x00010200
 cc0:	72020f02 	andvc	r0, r2, #2, 30
 cc4:	01000000 	mrseq	r0, (UNDEF: 0)
 cc8:	00000072 	andeq	r0, r0, r2, ror r0
 ccc:	02050001 	andeq	r0, r5, #1
 cd0:	700111e8 	andvc	r1, r1, r8, ror #3
 cd4:	010bb903 	tsteq	fp, r3, lsl #18
 cd8:	01000202 	tsteq	r0, r2, lsl #4
 cdc:	Address 0xcdc is out of bounds.


Disassembly of section .debug_str:

00000000 <.debug_str>:
   0:	61755f5f 	cmnvs	r5, pc, asr pc
   4:	695f7472 	ldmdbvs	pc, {r1, r4, r5, r6, sl, ip, sp, lr}^	@ <UNPREDICTABLE>
   8:	0074696e 	rsbseq	r6, r4, lr, ror #18
   c:	726f6873 	rsbvc	r6, pc, #7536640	@ 0x730000
  10:	6e692074 	mcrvs	0, 3, r2, cr9, cr4, {3}
  14:	4d490074 	stclmi	0, cr0, [r9, #-464]	@ 0xfffffe30
  18:	49004353 	stmdbmi	r0, {r0, r1, r4, r6, r8, r9, lr}
  1c:	00534c46 	subseq	r4, r3, r6, asr #24
  20:	44524249 	ldrbmi	r4, [r2], #-585	@ 0xfffffdb7
  24:	65435000 	strbvs	r5, [r3, #-0]
  28:	44496c6c 	strbmi	r6, [r9], #-3180	@ 0xfffff394
  2c:	52424600 	subpl	r4, r2, #0, 12
  30:	682f0044 	stmdavs	pc!, {r2, r6}	@ <UNPREDICTABLE>
  34:	2f656d6f 	svccs	0x00656d6f
  38:	6974616d 	ldmdbvs	r4!, {r0, r2, r3, r5, r6, r8, sp, lr}^
  3c:	752d7361 	strvc	r7, [sp, #-865]!	@ 0xfffffc9f
  40:	746e7562 	strbtvc	r7, [lr], #-1378	@ 0xfffffa9e
  44:	73452f75 	movtvc	r2, #24437	@ 0x5f75
  48:	74697263 	strbtvc	r7, [r9], #-611	@ 0xfffffd9d
  4c:	6f69726f 	svcvs	0x0069726f
  50:	7065722f 	rsbvc	r7, r5, pc, lsr #4
  54:	44542f6f 	ldrbmi	r2, [r4], #-3951	@ 0xfffff091
  58:	44542f32 	ldrbmi	r2, [r4], #-3890	@ 0xfffff0ce
  5c:	616d2d32 	cmnvs	sp, r2, lsr sp
  60:	702f6e69 	eorvc	r6, pc, r9, ror #28
  64:	656d6972 	strbvs	r6, [sp, #-2418]!	@ 0xfffff68e
  68:	75635f72 	strbvc	r5, [r3, #-3954]!	@ 0xfffff08e
  6c:	69727461 	ldmdbvs	r2!, {r0, r5, r6, sl, ip, sp, lr}^
  70:	7473656d 	ldrbtvc	r6, [r3], #-1389	@ 0xfffffa93
  74:	742f6572 	strtvc	r6, [pc], #-1394	@ 7c <SYS_MODE+0x5d>
  78:	00335f70 	eorseq	r5, r3, r0, ror pc
  7c:	63735f5f 	cmnvs	r3, #380	@ 0x17c
  80:	75646568 	strbvc	r6, [r4, #-1384]!	@ 0xfffffa98
  84:	5f72656c 	svcpl	0x0072656c
  88:	74696e69 	strbtvc	r6, [r9], #-3689	@ 0xfffff197
  8c:	554e4700 	strbpl	r4, [lr, #-1792]	@ 0xfffff900
  90:	39394320 	ldmdbcc	r9!, {r5, r8, r9, lr}
  94:	2e333120 	rsfcssp	f3, f3, f0
  98:	20312e32 	eorscs	r2, r1, r2, lsr lr
  9c:	33323032 	teqcc	r2, #50	@ 0x32
  a0:	39303031 	ldmdbcc	r0!, {r0, r4, r5, ip, sp}
  a4:	666d2d20 	strbtvs	r2, [sp], -r0, lsr #26
  a8:	6e3d7570 	mrcvs	5, 1, r7, cr13, cr0, {3}
  ac:	206e6f65 	rsbcs	r6, lr, r5, ror #30
  b0:	6c666d2d 	stclvs	13, cr6, [r6], #-180	@ 0xffffff4c
  b4:	2d74616f 	ldfcse	f6, [r4, #-444]!	@ 0xfffffe44
  b8:	3d696261 	sfmcc	f6, 2, [r9, #-388]!	@ 0xfffffe7c
  bc:	64726168 	ldrbtvs	r6, [r2], #-360	@ 0xfffffe98
  c0:	636d2d20 	cmnvs	sp, #32, 26	@ 0x800
  c4:	633d7570 	teqvs	sp, #112, 10	@ 0x1c000000
  c8:	6574726f 	ldrbvs	r7, [r4, #-623]!	@ 0xfffffd91
  cc:	38612d78 	stmdacc	r1!, {r3, r4, r5, r6, r8, sl, fp, sp}^
  d0:	616d2d20 	cmnvs	sp, r0, lsr #26
  d4:	2d206d72 	stccs	13, cr6, [r0, #-456]!	@ 0xfffffe38
  d8:	6372616d 	cmnvs	r2, #1073741851	@ 0x4000001b
  dc:	72613d68 	rsbvc	r3, r1, #104, 26	@ 0x1a00
  e0:	2d37766d 	ldccs	6, cr7, [r7, #-436]!	@ 0xfffffe4c
  e4:	65732b61 	ldrbvs	r2, [r3, #-2913]!	@ 0xfffff49f
  e8:	69732b63 	ldmdbvs	r3!, {r0, r1, r5, r6, r8, r9, fp, sp}^
  ec:	2d20646d 	cfstrscs	mvf6, [r0, #-436]!	@ 0xfffffe4c
  f0:	732d2067 			@ <UNDEFINED> instruction: 0x732d2067
  f4:	673d6474 			@ <UNDEFINED> instruction: 0x673d6474
  f8:	3939756e 	ldmdbcc	r9!, {r1, r2, r3, r5, r6, r8, sl, ip, sp, lr}
  fc:	745f5f00 	ldrbvc	r5, [pc], #-3840	@ 104 <_STACK_SIZE+0x4>
 100:	72656d69 	rsbvc	r6, r5, #6720	@ 0x1a40
 104:	696e695f 	stmdbvs	lr!, {r0, r1, r2, r3, r4, r6, r8, fp, sp, lr}^
 108:	69750074 	ldmdbvs	r5!, {r2, r4, r5, r6}^
 10c:	5f38746e 	svcpl	0x0038746e
 110:	65500074 	ldrbvs	r0, [r0, #-116]	@ 0xffffff8c
 114:	68706972 	ldmdavs	r0!, {r1, r4, r5, r6, r8, fp, sp, lr}^
 118:	6c004449 	cfstrsvs	mvf4, [r0], {73}	@ 0x49
 11c:	20676e6f 	rsbcs	r6, r7, pc, ror #28
 120:	676e6f6c 	strbvs	r6, [lr, -ip, ror #30]!
 124:	746e6920 	strbtvc	r6, [lr], #-2336	@ 0xfffff6e0
 128:	73657200 	cmnvc	r5, #0, 4
 12c:	65767265 	ldrbvs	r7, [r6, #-613]!	@ 0xfffffd9b
 130:	72003064 	andvc	r3, r0, #100	@ 0x64
 134:	72657365 	rsbvc	r7, r5, #-1811939327	@ 0x94000001
 138:	31646576 	smccc	18006	@ 0x4656
 13c:	73657200 	cmnvc	r5, #0, 4
 140:	65767265 	ldrbvs	r7, [r6, #-613]!	@ 0xfffffd9b
 144:	75003264 	strvc	r3, [r0, #-612]	@ 0xfffffd9c
 148:	6769736e 	strbvs	r7, [r9, -lr, ror #6]!
 14c:	2064656e 	rsbcs	r6, r4, lr, ror #10
 150:	72616863 	rsbvc	r6, r1, #6488064	@ 0x630000
 154:	6e6f6c00 	cdpvs	12, 6, cr6, cr15, cr0, {0}
 158:	6f6c2067 	svcvs	0x006c2067
 15c:	7520676e 	strvc	r6, [r0, #-1902]!	@ 0xfffff892
 160:	6769736e 	strbvs	r7, [r9, -lr, ror #6]!
 164:	2064656e 	rsbcs	r6, r4, lr, ror #10
 168:	00746e69 	rsbseq	r6, r4, r9, ror #28
 16c:	43414d44 	movtmi	r4, #7492	@ 0x1d44
 170:	69750052 	ldmdbvs	r5!, {r1, r4, r6}^
 174:	3233746e 	eorscc	r7, r3, #1845493760	@ 0x6e000000
 178:	7300745f 	movwvc	r7, #1119	@ 0x45f
 17c:	74726f68 	ldrbtvc	r6, [r2], #-3944	@ 0xfffff098
 180:	736e7520 	cmnvc	lr, #32, 10	@ 0x8000000
 184:	656e6769 	strbvs	r6, [lr, #-1897]!	@ 0xfffff897
 188:	6e692064 	cdpvs	0, 6, cr2, cr9, cr4, {3}
 18c:	755f0074 	ldrbvc	r0, [pc, #-116]	@ 120 <_STACK_SIZE+0x20>
 190:	5f747261 	svcpl	0x00747261
 194:	5f5f0074 	svcpl	0x005f0074
 198:	5f636967 	svcpl	0x00636967
 19c:	74696e69 	strbtvc	r6, [r9], #-3689	@ 0xfffff197
 1a0:	616f6200 	cmnvs	pc, r0, lsl #4
 1a4:	695f6472 	ldmdbvs	pc, {r1, r4, r5, r6, sl, sp, lr}^	@ <UNPREDICTABLE>
 1a8:	0074696e 	rsbseq	r6, r4, lr, ror #18
 1ac:	2f637273 	svccs	0x00637273
 1b0:	6e72656b 	cdpvs	5, 7, cr6, cr2, cr11, {3}
 1b4:	622f6c65 	eorvs	r6, pc, #25856	@ 0x6500
 1b8:	6472616f 	ldrbtvs	r6, [r2], #-367	@ 0xfffffe91
 1bc:	696e695f 	stmdbvs	lr!, {r0, r1, r2, r3, r4, r6, r8, fp, sp, lr}^
 1c0:	00632e74 	rsbeq	r2, r3, r4, ror lr
 1c4:	74536370 	ldrbvc	r6, [r3], #-880	@ 0xfffffc90
 1c8:	6f630072 	svcvs	0x00630072
 1cc:	00746e75 	rsbseq	r6, r4, r5, ror lr
 1d0:	6c694663 	stclvs	6, cr4, [r9], #-396	@ 0xfffffe74
 1d4:	6761006c 	strbvs	r0, [r1, -ip, rrx]!
 1d8:	006e6961 	rsbeq	r6, lr, r1, ror #18
 1dc:	6e675f5f 	mcrvs	15, 3, r5, cr7, cr15, {2}
 1e0:	765f6375 			@ <UNDEFINED> instruction: 0x765f6375
 1e4:	696c5f61 	stmdbvs	ip!, {r0, r5, r6, r8, r9, sl, fp, ip, lr}^
 1e8:	73007473 	movwvc	r7, #1139	@ 0x473
 1ec:	752f6372 	strvc	r6, [pc, #-882]!	@ fffffe82 <__system_stack_tasks_end__+0x8ffdf082>
 1f0:	736c6974 	cmnvc	ip, #116, 18	@ 0x1d0000
 1f4:	6e6f632f 	cdpvs	3, 6, cr6, cr15, cr15, {1}
 1f8:	656c6f73 	strbvs	r6, [ip, #-3955]!	@ 0xfffff08d
 1fc:	6974755f 	ldmdbvs	r4!, {r0, r1, r2, r3, r4, r6, r8, sl, ip, sp, lr}^
 200:	632e736c 			@ <UNDEFINED> instruction: 0x632e736c
 204:	52415500 	subpl	r5, r1, #0, 10
 208:	62003054 	andvs	r3, r0, #84	@ 0x54
 20c:	00657361 	rsbeq	r7, r5, r1, ror #6
 210:	70615f5f 	rsbvc	r5, r1, pc, asr pc
 214:	41617600 	cmnmi	r1, r0, lsl #12
 218:	70006772 	andvc	r6, r0, r2, ror r7
 21c:	66754263 	ldrbtvs	r4, [r5], -r3, ror #4
 220:	69725000 	ldmdbvs	r2!, {ip, lr}^
 224:	0066746e 	rsbeq	r7, r6, lr, ror #8
 228:	61765f5f 	cmnvs	r6, pc, asr pc
 22c:	73696c5f 	cmnvc	r9, #24320	@ 0x5f00
 230:	65680074 	strbvs	r0, [r8, #-116]!	@ 0xffffff8c
 234:	7265706c 	rsbvc	r7, r5, #108	@ 0x6c
 238:	6c61765f 	stclvs	6, cr7, [r1], #-380	@ 0xfffffe84
 23c:	75006575 	strvc	r6, [r0, #-1397]	@ 0xfffffa8b
 240:	31746e69 	cmncc	r4, r9, ror #28
 244:	00745f36 	rsbseq	r5, r4, r6, lsr pc
 248:	6e697270 	mcrvs	2, 3, r7, cr9, cr0, {3}
 24c:	5f665f74 	svcpl	0x00665f74
 250:	006e656c 	rsbeq	r6, lr, ip, ror #10
 254:	63705f67 	cmnvs	r0, #412	@ 0x19c
 258:	00786548 	rsbseq	r6, r8, r8, asr #10
 25c:	766e6f63 	strbtvc	r6, [lr], -r3, ror #30
 260:	00747265 	rsbseq	r7, r4, r5, ror #4
 264:	65736572 	ldrbvs	r6, [r3, #-1394]!	@ 0xfffffa8e
 268:	64657672 	strbtvs	r7, [r5], #-1650	@ 0xfffff98e
 26c:	65720038 	ldrbvs	r0, [r2, #-56]!	@ 0xffffffc8
 270:	76726573 			@ <UNDEFINED> instruction: 0x76726573
 274:	00396465 	eorseq	r6, r9, r5, ror #8
 278:	45505954 	ldrbmi	r5, [r0, #-2388]	@ 0xfffff6ac
 27c:	675f0052 			@ <UNDEFINED> instruction: 0x675f0052
 280:	5f636369 	svcpl	0x00636369
 284:	49470074 	stmdbmi	r7, {r2, r4, r5, r6}^
 288:	00304443 	eorseq	r4, r0, r3, asr #8
 28c:	47464349 	strbmi	r4, [r6, -r9, asr #6]
 290:	50480052 	subpl	r0, r8, r2, asr r0
 294:	00524950 	subseq	r4, r2, r0, asr r9
 298:	49525049 	ldmdbmi	r2, {r0, r3, r6, ip, lr}^
 29c:	5449524f 	strbpl	r5, [r9], #-591	@ 0xfffffdb1
 2a0:	5f005259 	svcpl	0x00005259
 2a4:	64636967 	strbtvs	r6, [r3], #-2407	@ 0xfffff699
 2a8:	4900745f 	stmdbmi	r0, {r0, r1, r2, r3, r4, r6, sl, ip, sp, lr}
 2ac:	414e4553 	cmpmi	lr, r3, asr r5
 2b0:	52454c42 	subpl	r4, r5, #16896	@ 0x4200
 2b4:	45434900 	strbmi	r4, [r3, #-2304]	@ 0xfffff700
 2b8:	4c42414e 	stfmie	f4, [r2], {78}	@ 0x4e
 2bc:	43005245 	movwmi	r5, #581	@ 0x245
 2c0:	00524c54 	subseq	r4, r2, r4, asr ip
 2c4:	43415349 	movtmi	r5, #4937	@ 0x1349
 2c8:	45564954 	ldrbmi	r4, [r6, #-2388]	@ 0xfffff6ac
 2cc:	65720052 	ldrbvs	r0, [r2, #-82]!	@ 0xffffffae
 2d0:	76726573 			@ <UNDEFINED> instruction: 0x76726573
 2d4:	00366465 	eorseq	r6, r6, r5, ror #8
 2d8:	52494f45 	subpl	r4, r9, #276	@ 0x114
 2dc:	43494700 	movtmi	r4, #38656	@ 0x9700
 2e0:	49003043 	stmdbmi	r0, {r0, r1, r6, ip, sp}
 2e4:	4e455043 	cdpmi	0, 4, cr5, cr5, cr3, {2}
 2e8:	49005244 	stmdbmi	r0, {r2, r6, r9, ip, lr}
 2ec:	4e455053 	mcrmi	0, 2, r5, cr5, cr3, {2}
 2f0:	49005244 	stmdbmi	r0, {r2, r6, r9, ip, lr}
 2f4:	47524154 			@ <UNDEFINED> instruction: 0x47524154
 2f8:	52535445 	subspl	r5, r3, #1157627904	@ 0x45000000
 2fc:	49475300 	stmdbmi	r7, {r8, r9, ip, lr}^
 300:	65720052 	ldrbvs	r0, [r2, #-82]!	@ 0xffffffae
 304:	76726573 			@ <UNDEFINED> instruction: 0x76726573
 308:	00336465 	eorseq	r6, r3, r5, ror #8
 30c:	65736572 	ldrbvs	r6, [r3, #-1394]!	@ 0xfffffa8e
 310:	64657672 	strbtvs	r7, [r5], #-1650	@ 0xfffff98e
 314:	65720034 	ldrbvs	r0, [r2, #-52]!	@ 0xffffffcc
 318:	76726573 			@ <UNDEFINED> instruction: 0x76726573
 31c:	00356465 	eorseq	r6, r5, r5, ror #8
 320:	2f637273 	svccs	0x00637273
 324:	72616f62 	rsbvc	r6, r1, #392	@ 0x188
 328:	69672f64 	stmdbvs	r7!, {r2, r5, r6, r8, r9, sl, fp, sp}^
 32c:	00632e63 	rsbeq	r2, r3, r3, ror #28
 330:	65736572 	ldrbvs	r6, [r3, #-1394]!	@ 0xfffffa8e
 334:	64657672 	strbtvs	r7, [r5], #-1650	@ 0xfffff98e
 338:	72730037 	rsbsvc	r0, r3, #55	@ 0x37
 33c:	656b2f63 	strbvs	r2, [fp, #-3939]!	@ 0xfffff09d
 340:	6c656e72 	stclvs	14, cr6, [r5], #-456	@ 0xfffffe38
 344:	6e61682f 	cdpvs	8, 6, cr6, cr1, cr15, {1}
 348:	72656c64 	rsbvc	r6, r5, #100, 24	@ 0x6400
 34c:	00732e73 	rsbseq	r2, r3, r3, ror lr
 350:	20554e47 	subscs	r4, r5, r7, asr #28
 354:	32205341 	eorcc	r5, r0, #67108865	@ 0x4000001
 358:	0032342e 	eorseq	r3, r2, lr, lsr #8
 35c:	6e72656b 	cdpvs	5, 7, cr6, cr2, cr11, {3}
 360:	685f6c65 	ldmdavs	pc, {r0, r2, r5, r6, sl, fp, sp, lr}^	@ <UNPREDICTABLE>
 364:	6c646e61 	stclvs	14, cr6, [r4], #-388	@ 0xfffffe7c
 368:	695f7265 	ldmdbvs	pc, {r0, r2, r5, r6, r9, ip, sp, lr}^	@ <UNPREDICTABLE>
 36c:	54007172 	strpl	r7, [r0], #-370	@ 0xfffffe8e
 370:	72656d69 	rsbvc	r6, r5, #6720	@ 0x1a40
 374:	53494d32 	movtpl	r4, #40242	@ 0x9d32
 378:	6e6f6300 	cdpvs	3, 6, cr6, cr15, cr0, {0}
 37c:	74786574 	ldrbtvc	r6, [r8], #-1396	@ 0xfffffa8c
 380:	6954006f 	ldmdbvs	r4, {r0, r1, r2, r3, r5, r6}^
 384:	3172656d 	cmncc	r2, sp, ror #10
 388:	64616f4c 	strbtvs	r6, [r1], #-3916	@ 0xfffff0b4
 38c:	6d695400 	cfstrdvs	mvd5, [r9, #-0]
 390:	43327265 	teqmi	r2, #1342177286	@ 0x50000006
 394:	006c7274 	rsbeq	r7, ip, r4, ror r2
 398:	695f6469 	ldmdbvs	pc, {r0, r3, r5, r6, sl, sp, lr}^	@ <UNPREDICTABLE>
 39c:	7265746e 	rsbvc	r7, r5, #1845493760	@ 0x6e000000
 3a0:	63707572 	cmnvs	r0, #478150656	@ 0x1c800000
 3a4:	006e6f69 	rsbeq	r6, lr, r9, ror #30
 3a8:	746e6f63 	strbtvc	r6, [lr], #-3939	@ 0xfffff09d
 3ac:	5f747865 	svcpl	0x00747865
 3b0:	70730074 	rsbsvc	r0, r3, r4, ror r0
 3b4:	54007273 	strpl	r7, [r0], #-627	@ 0xfffffd8d
 3b8:	72656d69 	rsbvc	r6, r5, #6720	@ 0x1a40
 3bc:	53495231 	movtpl	r5, #37425	@ 0x9231
 3c0:	75727400 	ldrbvc	r7, [r2, #-1024]!	@ 0xfffffc00
 3c4:	70735f65 	rsbsvc	r5, r3, r5, ror #30
 3c8:	6d695400 	cfstrdvs	mvd5, [r9, #-0]
 3cc:	56317265 	ldrtpl	r7, [r1], -r5, ror #4
 3d0:	65756c61 	ldrbvs	r6, [r5, #-3169]!	@ 0xfffff39f
 3d4:	735f5f00 	cmpvc	pc, #0, 30
 3d8:	64656863 	strbtvs	r6, [r5], #-2147	@ 0xfffff79d
 3dc:	72656c75 	rsbvc	r6, r5, #29952	@ 0x7500
 3e0:	65756e00 	ldrbvs	r6, [r5, #-3584]!	@ 0xfffff200
 3e4:	535f6f76 	cmppl	pc, #472	@ 0x1d8
 3e8:	69540050 	ldmdbvs	r4, {r4, r6}^
 3ec:	3272656d 	rsbscc	r6, r2, #457179136	@ 0x1b400000
 3f0:	43746e49 	cmnmi	r4, #1168	@ 0x490
 3f4:	5400726c 	strpl	r7, [r0], #-620	@ 0xfffffd94
 3f8:	72656d69 	rsbvc	r6, r5, #6720	@ 0x1a40
 3fc:	616f4c32 	cmnvs	pc, r2, lsr ip	@ <UNPREDICTABLE>
 400:	69540064 	ldmdbvs	r4, {r2, r5, r6}^
 404:	3272656d 	rsbscc	r6, r2, #457179136	@ 0x1b400000
 408:	00534952 	subseq	r4, r3, r2, asr r9
 40c:	6d69745f 	cfstrdvs	mvd7, [r9, #-380]!	@ 0xfffffe84
 410:	745f7265 	ldrbvc	r7, [pc], #-613	@ 418 <_STACK_SIZE+0x318>
 414:	63727300 	cmnvs	r2, #0, 6
 418:	7172692f 	cmnvc	r2, pc, lsr #18
 41c:	72656b2f 	rsbvc	r6, r5, #48128	@ 0xbc00
 420:	5f6c656e 	svcpl	0x006c656e
 424:	646e6168 	strbtvs	r6, [lr], #-360	@ 0xfffffe98
 428:	5f72656c 	svcpl	0x0072656c
 42c:	2e717269 	cdpcs	2, 7, cr7, cr1, cr9, {3}
 430:	69540063 	ldmdbvs	r4, {r0, r1, r5, r6}^
 434:	4972656d 	ldmdbmi	r2!, {r0, r2, r3, r5, r6, r8, sl, sp, lr}^
 438:	00524354 	subseq	r4, r2, r4, asr r3
 43c:	725f3072 	subsvc	r3, pc, #114	@ 0x72
 440:	54003231 	strpl	r3, [r0], #-561	@ 0xfffffdcf
 444:	72656d69 	rsbvc	r6, r5, #6720	@ 0x1a40
 448:	72744331 	rsbsvc	r4, r4, #-1006632960	@ 0xc4000000
 44c:	6954006c 	ldmdbvs	r4, {r2, r3, r5, r6}^
 450:	4972656d 	ldmdbmi	r2!, {r0, r2, r3, r5, r6, r8, sl, sp, lr}^
 454:	00504f54 	subseq	r4, r0, r4, asr pc
 458:	656d6954 	strbvs	r6, [sp, #-2388]!	@ 0xfffff6ac
 45c:	494d3172 	stmdbmi	sp, {r1, r4, r5, r6, r8, ip, sp}^
 460:	69540053 	ldmdbvs	r4, {r0, r1, r4, r6}^
 464:	3272656d 	rsbscc	r6, r2, #457179136	@ 0x1b400000
 468:	756c6156 	strbvc	r6, [ip, #-342]!	@ 0xfffffeaa
 46c:	69540065 	ldmdbvs	r4, {r0, r2, r5, r6}^
 470:	3172656d 	cmncc	r2, sp, ror #10
 474:	6f4c4742 	svcvs	0x004c4742
 478:	54006461 	strpl	r6, [r0], #-1121	@ 0xfffffb9f
 47c:	72656d69 	rsbvc	r6, r5, #6720	@ 0x1a40
 480:	4c474232 	sfmmi	f4, 2, [r7], {50}	@ 0x32
 484:	0064616f 	rsbeq	r6, r4, pc, ror #2
 488:	656d6954 	strbvs	r6, [sp, #-2388]!	@ 0xfffff6ac
 48c:	6e493172 	mcrvs	1, 2, r3, cr9, cr2, {3}
 490:	726c4374 	rsbvc	r4, ip, #116, 6	@ 0xd0000001
 494:	73656d00 	cmnvc	r5, #0, 26
 498:	65676173 	strbvs	r6, [r7, #-371]!	@ 0xfffffe8d
 49c:	72656b00 	rsbvc	r6, r5, #0, 22
 4a0:	5f6c656e 	svcpl	0x006c656e
 4a4:	646e6168 	strbtvs	r6, [lr], #-360	@ 0xfffffe98
 4a8:	5f72656c 	svcpl	0x0072656c
 4ac:	00637673 	rsbeq	r7, r3, r3, ror r6
 4b0:	2f637273 	svccs	0x00637273
 4b4:	2f717269 	svccs	0x00717269
 4b8:	6e72656b 	cdpvs	5, 7, cr6, cr2, cr11, {3}
 4bc:	685f6c65 	ldmdavs	pc, {r0, r2, r5, r6, sl, fp, sp, lr}^	@ <UNPREDICTABLE>
 4c0:	6c646e61 	stclvs	14, cr6, [r4], #-388	@ 0xfffffe7c
 4c4:	735f7265 	cmpvc	pc, #1342177286	@ 0x50000006
 4c8:	632e6977 			@ <UNDEFINED> instruction: 0x632e6977
 4cc:	63767300 	cmnvs	r6, #0, 6
 4d0:	6d756e5f 	ldclvs	14, cr6, [r5, #-380]!	@ 0xfffffe84
 4d4:	00726562 	rsbseq	r6, r2, r2, ror #10
 4d8:	5f697773 	svcpl	0x00697773
 4dc:	74736e69 	ldrbtvc	r6, [r3], #-3689	@ 0xfffff197
 4e0:	74637572 	strbtvc	r7, [r3], #-1394	@ 0xfffffa8e
 4e4:	006e6f69 	rsbeq	r6, lr, r9, ror #30
 4e8:	61745f5f 	cmnvs	r4, pc, asr pc
 4ec:	745f6b73 	ldrbvc	r6, [pc], #-2931	@ 4f4 <_STACK_SIZE+0x3f4>
 4f0:	61657261 	cmnvs	r5, r1, ror #4
 4f4:	74735f33 	ldrbtvc	r5, [r3], #-3891	@ 0xfffff0cd
 4f8:	5f6b6361 	svcpl	0x006b6361
 4fc:	5f706f74 	svcpl	0x00706f74
 500:	5f637673 	svcpl	0x00637673
 504:	6e69005f 	mcrvs	0, 3, r0, cr9, cr15, {2}
 508:	6f696369 	svcvs	0x00696369
 50c:	72617400 	rsbvc	r7, r1, #0, 8
 510:	615f6165 	cmpvs	pc, r5, ror #2
 514:	61757463 	cmnvs	r5, r3, ror #8
 518:	6174006c 	cmnvs	r4, ip, rrx
 51c:	73616572 	cmnvc	r1, #478150656	@ 0x1c800000
 520:	6e75665f 	mrcvs	6, 3, r6, cr5, cr15, {2}
 524:	745f5f00 	ldrbvc	r5, [pc], #-3840	@ 52c <_STACK_SIZE+0x42c>
 528:	5f6b7361 	svcpl	0x006b7361
 52c:	65726174 	ldrbvs	r6, [r2, #-372]!	@ 0xfffffe8c
 530:	735f3361 	cmpvc	pc, #-2080374783	@ 0x84000001
 534:	6b636174 	blvs	18d8b0c <_STACK_SIZE+0x18d8a0c>
 538:	706f745f 	rsbvc	r7, pc, pc, asr r4	@ <UNPREDICTABLE>
 53c:	7172695f 	cmnvc	r2, pc, asr r9
 540:	73005f5f 	movwvc	r5, #3935	@ 0xf5f
 544:	742f6372 	strtvc	r6, [pc], #-882	@ 54c <_STACK_SIZE+0x44c>
 548:	736b7361 	cmnvc	fp, #-2080374783	@ 0x84000001
 54c:	6863732f 	stmdavs	r3!, {r0, r1, r2, r3, r5, r8, r9, ip, sp, lr}^
 550:	6c756465 	cfldrdvs	mvd6, [r5], #-404	@ 0xfffffe6c
 554:	632e7265 			@ <UNDEFINED> instruction: 0x632e7265
 558:	73617400 	cmnvc	r1, #0, 8
 55c:	74735f6b 	ldrbtvc	r5, [r3], #-3947	@ 0xfffff095
 560:	5f6b6361 	svcpl	0x006b6361
 564:	00435653 	subeq	r5, r3, r3, asr r6
 568:	5f626374 	svcpl	0x00626374
 56c:	65726174 	ldrbvs	r6, [r2, #-372]!	@ 0xfffffe8c
 570:	5f007361 	svcpl	0x00007361
 574:	7361745f 	cmnvc	r1, #1593835520	@ 0x5f000000
 578:	61745f6b 	cmnvs	r4, fp, ror #30
 57c:	31616572 	smccc	5714	@ 0x1652
 580:	6174735f 	cmnvs	r4, pc, asr r3
 584:	745f6b63 	ldrbvc	r6, [pc], #-2915	@ 58c <_STACK_SIZE+0x48c>
 588:	735f706f 	cmpvc	pc, #111	@ 0x6f
 58c:	5f5f6376 	svcpl	0x005f6376
 590:	745f5f00 	ldrbvc	r5, [pc], #-3840	@ 598 <_STACK_SIZE+0x498>
 594:	5f6b7361 	svcpl	0x006b7361
 598:	65726174 	ldrbvs	r6, [r2, #-372]!	@ 0xfffffe8c
 59c:	735f3161 	cmpvc	pc, #1073741848	@ 0x40000018
 5a0:	6b636174 	blvs	18d8b78 <_STACK_SIZE+0x18d8a78>
 5a4:	706f745f 	rsbvc	r7, pc, pc, asr r4	@ <UNPREDICTABLE>
 5a8:	7172695f 	cmnvc	r2, pc, asr r9
 5ac:	74005f5f 	strvc	r5, [r0], #-3935	@ 0xfffff0a1
 5b0:	5f6b7361 	svcpl	0x006b7361
 5b4:	6b636974 	blvs	18dab8c <_STACK_SIZE+0x18daa8c>
 5b8:	61740073 	cmnvs	r4, r3, ror r0
 5bc:	5f616572 	svcpl	0x00616572
 5c0:	5f5f0031 	svcpl	0x005f0031
 5c4:	6b736174 	blvs	1cd8b9c <_STACK_SIZE+0x1cd8a9c>
 5c8:	6c64695f 			@ <UNDEFINED> instruction: 0x6c64695f
 5cc:	74735f65 	ldrbtvc	r5, [r3], #-3941	@ 0xfffff09b
 5d0:	5f6b6361 	svcpl	0x006b6361
 5d4:	5f706f74 	svcpl	0x00706f74
 5d8:	5f637673 	svcpl	0x00637673
 5dc:	7073005f 	rsbsvc	r0, r3, pc, asr r0
 5e0:	7172695f 	cmnvc	r2, pc, asr r9
 5e4:	72617400 	rsbvc	r7, r1, #0, 8
 5e8:	325f6165 	subscc	r6, pc, #1073741849	@ 0x40000019
 5ec:	72617400 	rsbvc	r7, r1, #0, 8
 5f0:	335f6165 	cmpcc	pc, #1073741849	@ 0x40000019
 5f4:	745f5f00 	ldrbvc	r5, [pc], #-3840	@ 5fc <_STACK_SIZE+0x4fc>
 5f8:	5f6b7361 	svcpl	0x006b7361
 5fc:	65726174 	ldrbvs	r6, [r2, #-372]!	@ 0xfffffe8c
 600:	735f3261 	cmpvc	pc, #268435462	@ 0x10000006
 604:	6b636174 	blvs	18d8bdc <_STACK_SIZE+0x18d8adc>
 608:	706f745f 	rsbvc	r7, pc, pc, asr r4	@ <UNPREDICTABLE>
 60c:	7172695f 	cmnvc	r2, pc, asr r9
 610:	65005f5f 	strvs	r5, [r0, #-3935]	@ 0xfffff0a1
 614:	7972746e 	ldmdbvc	r2!, {r1, r2, r3, r5, r6, sl, ip, sp, lr}^
 618:	696f705f 	stmdbvs	pc!, {r0, r1, r2, r3, r4, r6, ip, sp, lr}^	@ <UNPREDICTABLE>
 61c:	7000746e 	andvc	r7, r0, lr, ror #8
 620:	61706572 	cmnvs	r0, r2, ror r5
 624:	5f726172 	svcpl	0x00726172
 628:	746e6f63 	strbtvc	r6, [lr], #-3939	@ 0xfffff09d
 62c:	6f747865 	svcvs	0x00747865
 630:	7261745f 	rsbvc	r7, r1, #1593835520	@ 0x5f000000
 634:	74006165 	strvc	r6, [r0], #-357	@ 0xfffffe9b
 638:	5f6b7361 	svcpl	0x006b7361
 63c:	63617473 	cmnvs	r1, #1929379840	@ 0x73000000
 640:	52495f6b 	subpl	r5, r9, #428	@ 0x1ac
 644:	61740051 	cmnvs	r4, r1, asr r0
 648:	5f616572 	svcpl	0x00616572
 64c:	656c6469 	strbvs	r6, [ip, #-1129]!	@ 0xfffffb97
 650:	72617400 	rsbvc	r7, r1, #0, 8
 654:	6e5f6165 	rdfvsez	f6, f7, f5
 658:	61766575 	cmnvs	r6, r5, ror r5
 65c:	5f707300 	svcpl	0x00707300
 660:	00637673 	rsbeq	r7, r3, r3, ror r6
 664:	61745f5f 	cmnvs	r4, pc, asr pc
 668:	695f6b73 	ldmdbvs	pc, {r0, r1, r4, r5, r6, r8, r9, fp, sp, lr}^	@ <UNPREDICTABLE>
 66c:	5f656c64 	svcpl	0x00656c64
 670:	63617473 	cmnvs	r1, #1929379840	@ 0x73000000
 674:	6f745f6b 	svcvs	0x00745f6b
 678:	72695f70 	rsbvc	r5, r9, #112, 30	@ 0x1c0
 67c:	005f5f71 	subseq	r5, pc, r1, ror pc	@ <UNPREDICTABLE>
 680:	61745f5f 	cmnvs	r4, pc, asr pc
 684:	745f6b73 	ldrbvc	r6, [pc], #-2931	@ 68c <_STACK_SIZE+0x58c>
 688:	61657261 	cmnvs	r5, r1, ror #4
 68c:	74735f32 	ldrbtvc	r5, [r3], #-3890	@ 0xfffff0ce
 690:	5f6b6361 	svcpl	0x006b6361
 694:	5f706f74 	svcpl	0x00706f74
 698:	5f637673 	svcpl	0x00637673
 69c:	7973005f 	ldmdbvc	r3!, {r0, r1, r2, r3, r4, r6}^
 6a0:	6c616373 	stclvs	3, cr6, [r1], #-460	@ 0xfffffe34
 6a4:	72705f6c 	rsbsvc	r5, r0, #108, 30	@ 0x1b0
 6a8:	5f746e69 	svcpl	0x00746e69
 6ac:	69727473 	ldmdbvs	r2!, {r0, r1, r4, r5, r6, sl, ip, sp, lr}^
 6b0:	7300676e 	movwvc	r6, #1902	@ 0x76e
 6b4:	61637379 	smcvs	14137	@ 0x3739
 6b8:	705f6c6c 	subsvc	r6, pc, ip, ror #24
 6bc:	746e6972 	strbtvc	r6, [lr], #-2418	@ 0xfffff68e
 6c0:	6e69755f 	mcrvs	5, 3, r7, cr9, cr15, {2}
 6c4:	72730074 	rsbsvc	r0, r3, #116	@ 0x74
 6c8:	72692f63 	rsbvc	r2, r9, #396	@ 0x18c
 6cc:	79732f71 	ldmdbvc	r3!, {r0, r4, r5, r6, r8, r9, sl, fp, sp}^
 6d0:	6c616373 	stclvs	3, cr6, [r1], #-460	@ 0xfffffe34
 6d4:	632e736c 			@ <UNDEFINED> instruction: 0x632e736c
 6d8:	78656e00 	stmdavc	r5!, {r9, sl, fp, sp, lr}^
 6dc:	756e0074 	strbvc	r0, [lr, #-116]!	@ 0xffffff8c
 6e0:	6f72656d 	svcvs	0x0072656d
 6e4:	76696400 	strbtvc	r6, [r9], -r0, lsl #8
 6e8:	726f7369 	rsbvc	r7, pc, #-1543503871	@ 0xa4000001
 6ec:	63727300 	cmnvs	r2, #0, 6
 6f0:	7361742f 	cmnvc	r1, #788529152	@ 0x2f000000
 6f4:	742f736b 	strtvc	r7, [pc], #-875	@ 6fc <_STACK_SIZE+0x5fc>
 6f8:	61657261 	cmnvs	r5, r1, ror #4
 6fc:	00632e73 	rsbeq	r2, r3, r3, ror lr
 700:	2f637273 	svccs	0x00637273
 704:	72616f62 	rsbvc	r6, r1, #392	@ 0x188
 708:	69742f64 	ldmdbvs	r4!, {r2, r5, r6, r8, r9, sl, fp, sp}^
 70c:	2e72656d 	cdpcs	5, 7, cr6, cr2, cr13, {3}
 710:	49540063 	ldmdbmi	r4, {r0, r1, r5, r6}^
 714:	3052454d 	subscc	r4, r2, sp, asr #10
 718:	5f736900 	svcpl	0x00736900
 71c:	74726175 	ldrbtvc	r6, [r2], #-373	@ 0xfffffe8b
 720:	72700030 	rsbsvc	r0, r0, #48	@ 0x30
 724:	5f746e69 	svcpl	0x00746e69
 728:	61750066 	cmnvs	r5, r6, rrx
 72c:	6e5f7472 	mrcvs	4, 2, r7, cr15, cr2, {3}
 730:	72006d75 	andvc	r6, r0, #7488	@ 0x1d40
 734:	69757165 	ldmdbvs	r5!, {r0, r2, r5, r6, r8, ip, sp, lr}^
 738:	5f646572 	svcpl	0x00646572
 73c:	74726175 	ldrbtvc	r6, [r2], #-373	@ 0xfffffe8b
 740:	6978655f 	ldmdbvs	r8!, {r0, r1, r2, r3, r4, r6, r8, sl, sp, lr}^
 744:	00737473 	rsbseq	r7, r3, r3, ror r4
 748:	74726175 	ldrbtvc	r6, [r2], #-373	@ 0xfffffe8b
 74c:	7465675f 	strbtvc	r6, [r5], #-1887	@ 0xfffff8a1
 750:	74780063 	ldrbtvc	r0, [r8], #-99	@ 0xffffff9d
 754:	7500696f 	strvc	r6, [r0, #-2415]	@ 0xfffff691
 758:	5f747261 	svcpl	0x00747261
 75c:	68746567 	ldmdavs	r4!, {r0, r1, r2, r5, r6, r8, sl, sp, lr}^
 760:	6f746900 	svcvs	0x00746900
 764:	72730078 	rsbsvc	r0, r3, #120	@ 0x78
 768:	6f622f63 	svcvs	0x00622f63
 76c:	2f647261 	svccs	0x00647261
 770:	74726175 	ldrbtvc	r6, [r2], #-373	@ 0xfffffe8b
 774:	5500632e 	strpl	r6, [r0, #-814]	@ 0xfffffcd2
 778:	00545241 	subseq	r5, r4, r1, asr #4
 77c:	74726175 	ldrbtvc	r6, [r2], #-373	@ 0xfffffe8b
 780:	7475705f 	ldrbtvc	r7, [r5], #-95	@ 0xffffffa1
 784:	61750063 	cmnvs	r5, r3, rrx
 788:	705f7472 	subsvc	r7, pc, r2, ror r4	@ <UNPREDICTABLE>
 78c:	00687475 	rsbeq	r7, r8, r5, ror r4
 790:	2e2f2e2e 	cdpcs	14, 2, cr2, cr15, cr14, {1}
 794:	2e2e2f2e 	cdpcs	15, 2, cr2, cr14, cr14, {1}
 798:	62696c2f 	rsbvs	r6, r9, #12032	@ 0x2f00
 79c:	2f636367 	svccs	0x00636367
 7a0:	666e6f63 	strbtvs	r6, [lr], -r3, ror #30
 7a4:	612f6769 			@ <UNDEFINED> instruction: 0x612f6769
 7a8:	6c2f6d72 	stcvs	13, cr6, [pc], #-456	@ 5e8 <_STACK_SIZE+0x4e8>
 7ac:	66316269 	ldrtvs	r6, [r1], -r9, ror #4
 7b0:	73636e75 	cmnvc	r3, #1872	@ 0x750
 7b4:	2f00532e 	svccs	0x0000532e
 7b8:	6c697562 	cfstr64vs	mvdx7, [r9], #-392	@ 0xfffffe78
 7bc:	63672f64 	cmnvs	r7, #100, 30	@ 0x190
 7c0:	72612d63 	rsbvc	r2, r1, #6336	@ 0x18c0
 7c4:	6f6e2d6d 	svcvs	0x006e2d6d
 7c8:	652d656e 	strvs	r6, [sp, #-1390]!	@ 0xfffffa92
 7cc:	2d696261 	sfmcs	f6, 2, [r9, #-388]!	@ 0xfffffe7c
 7d0:	5a547554 	bpl	151dd28 <_STACK_SIZE+0x151dc28>
 7d4:	672f304e 	strvs	r3, [pc, -lr, asr #32]!
 7d8:	612d6363 			@ <UNDEFINED> instruction: 0x612d6363
 7dc:	6e2d6d72 	mcrvs	13, 1, r6, cr13, cr2, {3}
 7e0:	2d656e6f 	stclcs	14, cr6, [r5, #-444]!	@ 0xfffffe44
 7e4:	69626165 	stmdbvs	r2!, {r0, r2, r5, r6, r8, sp, lr}^
 7e8:	2e33312d 	rsfcssp	f3, f3, #5.0
 7ec:	65722e32 	ldrbvs	r2, [r2, #-3634]!	@ 0xfffff1ce
 7f0:	622f316c 	eorvs	r3, pc, #108, 2
 7f4:	646c6975 	strbtvs	r6, [ip], #-2421	@ 0xfffff68b
 7f8:	6d72612f 	ldfvse	f6, [r2, #-188]!	@ 0xffffff44
 7fc:	6e6f6e2d 	cdpvs	14, 6, cr6, cr15, cr13, {1}
 800:	61652d65 	cmnvs	r5, r5, ror #26
 804:	6c2f6962 			@ <UNDEFINED> instruction: 0x6c2f6962
 808:	63676269 	cmnvs	r7, #-1879048186	@ 0x90000006
 80c:	5f5f0063 	svcpl	0x005f0063
 810:	76696475 			@ <UNDEFINED> instruction: 0x76696475
 814:	00336973 	eorseq	r6, r3, r3, ror r9
 818:	65615f5f 	strbvs	r5, [r1, #-3935]!	@ 0xfffff0a1
 81c:	5f696261 	svcpl	0x00696261
 820:	69646975 	stmdbvs	r4!, {r0, r2, r4, r5, r6, r8, fp, sp, lr}^
 824:	646f6d76 	strbtvs	r6, [pc], #-3446	@ 82c <_STACK_SIZE+0x72c>
 828:	615f5f00 	cmpvs	pc, r0, lsl #30
 82c:	69626165 	stmdbvs	r2!, {r0, r2, r5, r6, r8, sp, lr}^
 830:	6964695f 	stmdbvs	r4!, {r0, r1, r2, r3, r4, r6, r8, fp, sp, lr}^
 834:	5f003076 	svcpl	0x00003076
 838:	6165615f 	cmnvs	r5, pc, asr r1
 83c:	6c5f6962 	mrrcvs	9, 6, r6, pc, cr2	@ <UNPREDICTABLE>
 840:	30766964 	rsbscc	r6, r6, r4, ror #18
	...

Disassembly of section .comment:

00000000 <.comment>:
   0:	3a434347 	bcc	10d0d24 <_STACK_SIZE+0x10d0c24>
   4:	35312820 	ldrcc	r2, [r1, #-2080]!	@ 0xfffff7e0
   8:	2e33313a 	mrccs	1, 1, r3, cr3, cr10, {1}
   c:	65722e32 	ldrbvs	r2, [r2, #-3634]!	@ 0xfffff1ce
  10:	322d316c 	eorcc	r3, sp, #108, 2
  14:	33312029 	teqcc	r1, #41	@ 0x29
  18:	312e322e 			@ <UNDEFINED> instruction: 0x312e322e
  1c:	32303220 	eorscc	r3, r0, #32, 4
  20:	30303133 	eorscc	r3, r0, r3, lsr r1
  24:	Address 0x24 is out of bounds.


Disassembly of section .ARM.attributes:

00000000 <.ARM.attributes>:
   0:	00003441 	andeq	r3, r0, r1, asr #8
   4:	61656100 	cmnvs	r5, r0, lsl #2
   8:	01006962 	tsteq	r0, r2, ror #18
   c:	0000002a 	andeq	r0, r0, sl, lsr #32
  10:	412d3705 			@ <UNDEFINED> instruction: 0x412d3705
  14:	070a0600 	streq	r0, [sl, -r0, lsl #12]
  18:	09010841 	stmdbeq	r1, {r0, r6, fp}
  1c:	0c030a02 			@ <UNDEFINED> instruction: 0x0c030a02
  20:	14041201 	strne	r1, [r4], #-513	@ 0xfffffdff
  24:	17011501 	strne	r1, [r1, -r1, lsl #10]
  28:	1a011803 	bne	4603c <_STACK_SIZE+0x45f3c>
  2c:	1e011c01 	cdpne	12, 0, cr1, cr1, cr1, {0}
  30:	44012206 	strmi	r2, [r1], #-518	@ 0xfffffdfa
  34:	Address 0x34 is out of bounds.


Disassembly of section .debug_frame:

00000000 <.debug_frame>:
   0:	0000000c 	andeq	r0, r0, ip
   4:	ffffffff 			@ <UNDEFINED> instruction: 0xffffffff
   8:	7c020001 	stcvc	0, cr0, [r2], {1}
   c:	000d0c0e 	andeq	r0, sp, lr, lsl #24
  10:	0000001c 	andeq	r0, r0, ip, lsl r0
  14:	00000000 	andeq	r0, r0, r0
  18:	70010ed8 	ldrdvc	r0, [r1], -r8
  1c:	00000030 	andeq	r0, r0, r0, lsr r0
  20:	8b080e42 	blhi	203930 <_STACK_SIZE+0x203830>
  24:	42018e02 	andmi	r8, r1, #2, 28
  28:	52040b0c 	andpl	r0, r4, #12, 22	@ 0x3000
  2c:	00080d0c 	andeq	r0, r8, ip, lsl #26
  30:	0000000c 	andeq	r0, r0, ip
  34:	ffffffff 			@ <UNDEFINED> instruction: 0xffffffff
  38:	7c020001 	stcvc	0, cr0, [r2], {1}
  3c:	000d0c0e 	andeq	r0, sp, lr, lsl #24
  40:	00000034 	andeq	r0, r0, r4, lsr r0
  44:	00000030 	andeq	r0, r0, r0, lsr r0
  48:	70010108 	andvc	r0, r1, r8, lsl #2
  4c:	000005a4 	andeq	r0, r0, r4, lsr #11
  50:	80100e42 	andshi	r0, r0, r2, asr #28
  54:	82038104 	andhi	r8, r3, #4, 2
  58:	42018302 	andmi	r8, r1, #134217728	@ 0x8000000
  5c:	068b180e 	streq	r1, [fp], lr, lsl #16
  60:	0c42058e 	cfstr64eq	mvdx0, [r2], {142}	@ 0x8e
  64:	c603140b 	strgt	r1, [r3], -fp, lsl #8
  68:	180d0c02 	stmdane	sp, {r1, sl, fp}
  6c:	0ecbce42 	cdpeq	14, 12, cr12, cr11, cr2, {2}
  70:	c2c34210 	sbcgt	r4, r3, #16, 4
  74:	000ec0c1 	andeq	ip, lr, r1, asr #1
  78:	0000001c 	andeq	r0, r0, ip, lsl r0
  7c:	00000030 	andeq	r0, r0, r0, lsr r0
  80:	700106ac 	andvc	r0, r1, ip, lsr #13
  84:	00000060 	andeq	r0, r0, r0, rrx
  88:	8b040e42 	blhi	103998 <_STACK_SIZE+0x103898>
  8c:	0b0d4201 	bleq	350898 <_STACK_SIZE+0x350798>
  90:	420d0d68 	andmi	r0, sp, #104, 26	@ 0x1a00
  94:	00000ecb 	andeq	r0, r0, fp, asr #29
  98:	0000000c 	andeq	r0, r0, ip
  9c:	ffffffff 			@ <UNDEFINED> instruction: 0xffffffff
  a0:	7c020001 	stcvc	0, cr0, [r2], {1}
  a4:	000d0c0e 	andeq	r0, sp, lr, lsl #24
  a8:	0000001c 	andeq	r0, r0, ip, lsl r0
  ac:	00000098 	muleq	r0, r8, r0
  b0:	7001070c 	andvc	r0, r1, ip, lsl #14
  b4:	0000007c 	andeq	r0, r0, ip, ror r0
  b8:	8b040e42 	blhi	1039c8 <_STACK_SIZE+0x1038c8>
  bc:	0b0d4201 	bleq	3508c8 <_STACK_SIZE+0x3507c8>
  c0:	420d0d76 	andmi	r0, sp, #7552	@ 0x1d80
  c4:	00000ecb 	andeq	r0, r0, fp, asr #29
  c8:	0000000c 	andeq	r0, r0, ip
  cc:	ffffffff 			@ <UNDEFINED> instruction: 0xffffffff
  d0:	7c020001 	stcvc	0, cr0, [r2], {1}
  d4:	000d0c0e 	andeq	r0, sp, lr, lsl #24
  d8:	0000001c 	andeq	r0, r0, ip, lsl r0
  dc:	000000c8 	andeq	r0, r0, r8, asr #1
  e0:	700112bc 			@ <UNDEFINED> instruction: 0x700112bc
  e4:	000000bc 	strheq	r0, [r0], -ip
  e8:	8b080e42 	blhi	2039f8 <_STACK_SIZE+0x2038f8>
  ec:	42018e02 	andmi	r8, r1, #2, 28
  f0:	02040b0c 	andeq	r0, r4, #12, 22	@ 0x3000
  f4:	080d0c58 	stmdaeq	sp, {r3, r4, r6, sl, fp}
  f8:	0000000c 	andeq	r0, r0, ip
  fc:	ffffffff 			@ <UNDEFINED> instruction: 0xffffffff
 100:	7c020001 	stcvc	0, cr0, [r2], {1}
 104:	000d0c0e 	andeq	r0, sp, lr, lsl #24
 108:	0000001c 	andeq	r0, r0, ip, lsl r0
 10c:	000000f8 	strdeq	r0, [r0], -r8
 110:	70010f08 	andvc	r0, r1, r8, lsl #30
 114:	000000b4 	strheq	r0, [r0], -r4
 118:	8b080e42 	blhi	203a28 <_STACK_SIZE+0x203928>
 11c:	42018e02 	andmi	r8, r1, #2, 28
 120:	02040b0c 	andeq	r0, r4, #12, 22	@ 0x3000
 124:	080d0c54 	stmdaeq	sp, {r2, r4, r6, sl, fp}
 128:	0000000c 	andeq	r0, r0, ip
 12c:	ffffffff 			@ <UNDEFINED> instruction: 0xffffffff
 130:	7c020001 	stcvc	0, cr0, [r2], {1}
 134:	000d0c0e 	andeq	r0, sp, lr, lsl #24
 138:	0000001c 	andeq	r0, r0, ip, lsl r0
 13c:	00000128 	andeq	r0, r0, r8, lsr #2
 140:	70010fbc 			@ <UNDEFINED> instruction: 0x70010fbc
 144:	000000c0 	andeq	r0, r0, r0, asr #1
 148:	8b040e42 	blhi	103a58 <_STACK_SIZE+0x103958>
 14c:	0b0d4201 	bleq	350958 <_STACK_SIZE+0x350858>
 150:	0d0d5802 	stceq	8, cr5, [sp, #-8]
 154:	000ecb42 	andeq	ip, lr, r2, asr #22
 158:	0000001c 	andeq	r0, r0, ip, lsl r0
 15c:	00000128 	andeq	r0, r0, r8, lsr #2
 160:	70010788 	andvc	r0, r1, r8, lsl #15
 164:	000000f8 	strdeq	r0, [r0], -r8
 168:	8b080e42 	blhi	203a78 <_STACK_SIZE+0x203978>
 16c:	42018e02 	andmi	r8, r1, #2, 28
 170:	02040b0c 	andeq	r0, r4, #12, 22	@ 0x3000
 174:	080d0c76 	stmdaeq	sp, {r1, r2, r4, r5, r6, sl, fp}
 178:	0000001c 	andeq	r0, r0, ip, lsl r0
 17c:	00000128 	andeq	r0, r0, r8, lsr #2
 180:	70010880 	andvc	r0, r1, r0, lsl #17
 184:	00000174 	andeq	r0, r0, r4, ror r1
 188:	8b040e42 	blhi	103a98 <_STACK_SIZE+0x103998>
 18c:	0b0d4201 	bleq	350998 <_STACK_SIZE+0x350898>
 190:	0d0db202 	sfmeq	f3, 1, [sp, #-8]
 194:	000ecb42 	andeq	ip, lr, r2, asr #22
 198:	0000000c 	andeq	r0, r0, ip
 19c:	ffffffff 			@ <UNDEFINED> instruction: 0xffffffff
 1a0:	7c020001 	stcvc	0, cr0, [r2], {1}
 1a4:	000d0c0e 	andeq	r0, sp, lr, lsl #24
 1a8:	0000001c 	andeq	r0, r0, ip, lsl r0
 1ac:	00000198 	muleq	r0, r8, r1
 1b0:	7001107c 	andvc	r1, r1, ip, ror r0
 1b4:	0000002c 	andeq	r0, r0, ip, lsr #32
 1b8:	8b040e42 	blhi	103ac8 <_STACK_SIZE+0x1039c8>
 1bc:	0b0d4201 	bleq	3509c8 <_STACK_SIZE+0x3508c8>
 1c0:	420d0d4e 	andmi	r0, sp, #4992	@ 0x1380
 1c4:	00000ecb 	andeq	r0, r0, fp, asr #29
 1c8:	0000001c 	andeq	r0, r0, ip, lsl r0
 1cc:	00000198 	muleq	r0, r8, r1
 1d0:	700110a8 	andvc	r1, r1, r8, lsr #1
 1d4:	0000002c 	andeq	r0, r0, ip, lsr #32
 1d8:	8b040e42 	blhi	103ae8 <_STACK_SIZE+0x1039e8>
 1dc:	0b0d4201 	bleq	3509e8 <_STACK_SIZE+0x3508e8>
 1e0:	420d0d4e 	andmi	r0, sp, #4992	@ 0x1380
 1e4:	00000ecb 	andeq	r0, r0, fp, asr #29
 1e8:	0000000c 	andeq	r0, r0, ip
 1ec:	ffffffff 			@ <UNDEFINED> instruction: 0xffffffff
 1f0:	7c020001 	stcvc	0, cr0, [r2], {1}
 1f4:	000d0c0e 	andeq	r0, sp, lr, lsl #24
 1f8:	00000014 	andeq	r0, r0, r4, lsl r0
 1fc:	000001e8 	andeq	r0, r0, r8, ror #3
 200:	70011378 	andvc	r1, r1, r8, ror r3
 204:	00000010 	andeq	r0, r0, r0, lsl r0
 208:	8b040e42 	blhi	103b18 <_STACK_SIZE+0x103a18>
 20c:	0b0d4201 	bleq	350a18 <_STACK_SIZE+0x350918>
 210:	00000018 	andeq	r0, r0, r8, lsl r0
 214:	000001e8 	andeq	r0, r0, r8, ror #3
 218:	70011388 	andvc	r1, r1, r8, lsl #7
 21c:	00000088 	andeq	r0, r0, r8, lsl #1
 220:	8b080e42 	blhi	203b30 <_STACK_SIZE+0x203a30>
 224:	42018e02 	andmi	r8, r1, #2, 28
 228:	00040b0c 	andeq	r0, r4, ip, lsl #22
 22c:	00000018 	andeq	r0, r0, r8, lsl r0
 230:	000001e8 	andeq	r0, r0, r8, ror #3
 234:	70011410 	andvc	r1, r1, r0, lsl r4
 238:	00000098 	muleq	r0, r8, r0
 23c:	8b080e42 	blhi	203b4c <_STACK_SIZE+0x203a4c>
 240:	42018e02 	andmi	r8, r1, #2, 28
 244:	00040b0c 	andeq	r0, r4, ip, lsl #22
 248:	00000018 	andeq	r0, r0, r8, lsl r0
 24c:	000001e8 	andeq	r0, r0, r8, ror #3
 250:	700114a8 	andvc	r1, r1, r8, lsr #9
 254:	000000bc 	strheq	r0, [r0], -ip
 258:	8b080e42 	blhi	203b68 <_STACK_SIZE+0x203a68>
 25c:	42018e02 	andmi	r8, r1, #2, 28
 260:	00040b0c 	andeq	r0, r4, ip, lsl #22
 264:	0000000c 	andeq	r0, r0, ip
 268:	ffffffff 			@ <UNDEFINED> instruction: 0xffffffff
 26c:	7c020001 	stcvc	0, cr0, [r2], {1}
 270:	000d0c0e 	andeq	r0, sp, lr, lsl #24
 274:	0000001c 	andeq	r0, r0, ip, lsl r0
 278:	00000264 	andeq	r0, r0, r4, ror #4
 27c:	700109f4 	strdvc	r0, [r1], -r4
 280:	0000007c 	andeq	r0, r0, ip, ror r0
 284:	8b040e42 	blhi	103b94 <_STACK_SIZE+0x103a94>
 288:	0b0d4201 	bleq	350a94 <_STACK_SIZE+0x350994>
 28c:	420d0d76 	andmi	r0, sp, #7552	@ 0x1d80
 290:	00000ecb 	andeq	r0, r0, fp, asr #29
 294:	0000000c 	andeq	r0, r0, ip
 298:	ffffffff 			@ <UNDEFINED> instruction: 0xffffffff
 29c:	7c020001 	stcvc	0, cr0, [r2], {1}
 2a0:	000d0c0e 	andeq	r0, sp, lr, lsl #24
 2a4:	0000001c 	andeq	r0, r0, ip, lsl r0
 2a8:	00000294 	muleq	r0, r4, r2
 2ac:	70010a70 	andvc	r0, r1, r0, ror sl
 2b0:	0000010c 	andeq	r0, r0, ip, lsl #2
 2b4:	8b040e42 	blhi	103bc4 <_STACK_SIZE+0x103ac4>
 2b8:	0b0d4201 	bleq	350ac4 <_STACK_SIZE+0x3509c4>
 2bc:	0d0d7e02 	stceq	14, cr7, [sp, #-8]
 2c0:	000ecb42 	andeq	ip, lr, r2, asr #22
 2c4:	0000001c 	andeq	r0, r0, ip, lsl r0
 2c8:	00000294 	muleq	r0, r4, r2
 2cc:	70010b7c 	andvc	r0, r1, ip, ror fp
 2d0:	00000094 	muleq	r0, r4, r0
 2d4:	8b040e42 	blhi	103be4 <_STACK_SIZE+0x103ae4>
 2d8:	0b0d4201 	bleq	350ae4 <_STACK_SIZE+0x3509e4>
 2dc:	0d0d4202 	sfmeq	f4, 4, [sp, #-8]
 2e0:	000ecb42 	andeq	ip, lr, r2, asr #22
 2e4:	0000001c 	andeq	r0, r0, ip, lsl r0
 2e8:	00000294 	muleq	r0, r4, r2
 2ec:	70010c10 	andvc	r0, r1, r0, lsl ip
 2f0:	0000007c 	andeq	r0, r0, ip, ror r0
 2f4:	8b040e42 	blhi	103c04 <_STACK_SIZE+0x103b04>
 2f8:	0b0d4201 	bleq	350b04 <_STACK_SIZE+0x350a04>
 2fc:	420d0d76 	andmi	r0, sp, #7552	@ 0x1d80
 300:	00000ecb 	andeq	r0, r0, fp, asr #29
 304:	0000001c 	andeq	r0, r0, ip, lsl r0
 308:	00000294 	muleq	r0, r4, r2
 30c:	70010c8c 	andvc	r0, r1, ip, lsl #25
 310:	0000004c 	andeq	r0, r0, ip, asr #32
 314:	8b040e42 	blhi	103c24 <_STACK_SIZE+0x103b24>
 318:	0b0d4201 	bleq	350b24 <_STACK_SIZE+0x350a24>
 31c:	420d0d5e 	andmi	r0, sp, #6016	@ 0x1780
 320:	00000ecb 	andeq	r0, r0, fp, asr #29
 324:	0000001c 	andeq	r0, r0, ip, lsl r0
 328:	00000294 	muleq	r0, r4, r2
 32c:	70010cd8 	ldrdvc	r0, [r1], -r8
 330:	00000044 	andeq	r0, r0, r4, asr #32
 334:	8b040e42 	blhi	103c44 <_STACK_SIZE+0x103b44>
 338:	0b0d4201 	bleq	350b44 <_STACK_SIZE+0x350a44>
 33c:	420d0d5a 	andmi	r0, sp, #5760	@ 0x1680
 340:	00000ecb 	andeq	r0, r0, fp, asr #29
 344:	0000001c 	andeq	r0, r0, ip, lsl r0
 348:	00000294 	muleq	r0, r4, r2
 34c:	70010d1c 	andvc	r0, r1, ip, lsl sp
 350:	0000006c 	andeq	r0, r0, ip, rrx
 354:	8b080e42 	blhi	203c64 <_STACK_SIZE+0x203b64>
 358:	42018e02 	andmi	r8, r1, #2, 28
 35c:	70040b0c 	andvc	r0, r4, ip, lsl #22
 360:	00080d0c 	andeq	r0, r8, ip, lsl #26
 364:	0000001c 	andeq	r0, r0, ip, lsl r0
 368:	00000294 	muleq	r0, r4, r2
 36c:	70010d88 	andvc	r0, r1, r8, lsl #27
 370:	00000070 	andeq	r0, r0, r0, ror r0
 374:	8b080e42 	blhi	203c84 <_STACK_SIZE+0x203b84>
 378:	42018e02 	andmi	r8, r1, #2, 28
 37c:	72040b0c 	andvc	r0, r4, #12, 22	@ 0x3000
 380:	00080d0c 	andeq	r0, r8, ip, lsl #26
 384:	0000001c 	andeq	r0, r0, ip, lsl r0
 388:	00000294 	muleq	r0, r4, r2
 38c:	70010df8 	strdvc	r0, [r1], -r8
 390:	00000060 	andeq	r0, r0, r0, rrx
 394:	8b080e42 	blhi	203ca4 <_STACK_SIZE+0x203ba4>
 398:	42018e02 	andmi	r8, r1, #2, 28
 39c:	6a040b0c 	bvs	102fd4 <_STACK_SIZE+0x102ed4>
 3a0:	00080d0c 	andeq	r0, r8, ip, lsl #26
 3a4:	0000001c 	andeq	r0, r0, ip, lsl r0
 3a8:	00000294 	muleq	r0, r4, r2
 3ac:	70010e58 	andvc	r0, r1, r8, asr lr
 3b0:	00000080 	andeq	r0, r0, r0, lsl #1
 3b4:	8b080e42 	blhi	203cc4 <_STACK_SIZE+0x203bc4>
 3b8:	42018e02 	andmi	r8, r1, #2, 28
 3bc:	7a040b0c 	bvc	102ff4 <_STACK_SIZE+0x102ef4>
 3c0:	00080d0c 	andeq	r0, r8, ip, lsl #26
 3c4:	0000000c 	andeq	r0, r0, ip
 3c8:	ffffffff 			@ <UNDEFINED> instruction: 0xffffffff
 3cc:	7c010001 	stcvc	0, cr0, [r1], {1}
 3d0:	000d0c0e 	andeq	r0, sp, lr, lsl #24
 3d4:	0000000c 	andeq	r0, r0, ip
 3d8:	000003c4 	andeq	r0, r0, r4, asr #7
 3dc:	700110d4 	ldrdvc	r1, [r1], -r4
 3e0:	000000f4 	strdeq	r0, [r0], -r4

Disassembly of section .debug_line_str:

00000000 <.debug_line_str>:
   0:	6975622f 	ldmdbvs	r5!, {r0, r1, r2, r3, r5, r9, sp, lr}^
   4:	672f646c 	strvs	r6, [pc, -ip, ror #8]!
   8:	612d6363 			@ <UNDEFINED> instruction: 0x612d6363
   c:	6e2d6d72 	mcrvs	13, 1, r6, cr13, cr2, {3}
  10:	2d656e6f 	stclcs	14, cr6, [r5, #-444]!	@ 0xfffffe44
  14:	69626165 	stmdbvs	r2!, {r0, r2, r5, r6, r8, sp, lr}^
  18:	5475542d 	ldrbtpl	r5, [r5], #-1069	@ 0xfffffbd3
  1c:	2f304e5a 	svccs	0x00304e5a
  20:	2d636367 	stclcs	3, cr6, [r3, #-412]!	@ 0xfffffe64
  24:	2d6d7261 	sfmcs	f7, 2, [sp, #-388]!	@ 0xfffffe7c
  28:	656e6f6e 	strbvs	r6, [lr, #-3950]!	@ 0xfffff092
  2c:	6261652d 	rsbvs	r6, r1, #188743680	@ 0xb400000
  30:	33312d69 	teqcc	r1, #6720	@ 0x1a40
  34:	722e322e 	eorvc	r3, lr, #-536870910	@ 0xe0000002
  38:	2f316c65 	svccs	0x00316c65
  3c:	6c697562 	cfstr64vs	mvdx7, [r9], #-392	@ 0xfffffe78
  40:	72612f64 	rsbvc	r2, r1, #100, 30	@ 0x190
  44:	6f6e2d6d 	svcvs	0x006e2d6d
  48:	652d656e 	strvs	r6, [sp, #-1390]!	@ 0xfffffa92
  4c:	2f696261 	svccs	0x00696261
  50:	6762696c 	strbvs	r6, [r2, -ip, ror #18]!
  54:	2e006363 	cdpcs	3, 0, cr6, cr0, cr3, {3}
  58:	2e2e2f2e 	cdpcs	15, 2, cr2, cr14, cr14, {1}
  5c:	2f2e2e2f 	svccs	0x002e2e2f
  60:	6762696c 	strbvs	r6, [r2, -ip, ror #18]!
  64:	632f6363 			@ <UNDEFINED> instruction: 0x632f6363
  68:	69666e6f 	stmdbvs	r6!, {r0, r1, r2, r3, r5, r6, r9, sl, fp, sp, lr}^
  6c:	72612f67 	rsbvc	r2, r1, #412	@ 0x19c
  70:	696c006d 	stmdbvs	ip!, {r0, r2, r3, r5, r6}^
  74:	75663162 	strbvc	r3, [r6, #-354]!	@ 0xfffffe9e
  78:	2e73636e 	cdpcs	3, 7, cr6, cr3, cr14, {3}
  7c:	Address 0x7c is out of bounds.

